
Allocating common symbols
Common symbol       size              file

g_cursor_x          0x4               crt0.o
password            0xb               main.o
objectY             0x4               main.o
CurrentWindow       0x4               main.o
backgroung_color    0x4               main.o
wsWindowHeight      0x4               main.o
stdout              0x4               crt0.o
menu_button         0x4               main.o
screen_buffer_y     0x4               main.o
wlFullScreenLeft    0x4               main.o
mm_prev_pointer     0x4               stdlib.o
mmblockList         0x400             stdlib.o
__libc_tty_id       0x4               crt0.o
username            0xb               main.o
last_valid          0x4               stdlib.o
heapList            0x400             api.o
close_button        0x4               main.o
libcHeap            0x4               api.o
smCursorHeight      0x4               main.o
pathname_buffer     0x40              main.o
deltaY              0x4               main.o
errno               0x4               unistd.o
textCurrentRow      0x4               main.o
g_char_attrib       0x4               crt0.o
g_rows              0x4               crt0.o
app4_button         0x4               main.o
shellStatus         0x4               main.o
dialogbox_button2   0x4               api.o
smMousePointerWidth
                    0x4               main.o
smMousePointerHeight
                    0x4               main.o
filename_buffer     0xb               main.o
Streams             0x80              crt0.o
optarg              0x4               unistd.o
xmas_tree_window    0x4               main.o
messagebox_button1  0x4               api.o
textWheelDelta      0x4               main.o
app1_button         0x4               main.o
__count             0x4               main.o
g_using_gui         0x4               crt0.o
__stdout_fd         0x4               main.o
opterr              0x4               unistd.o
wlMinRows           0x4               main.o
current_volume_string
                    0x4               main.o
ShellMetrics        0x4               main.o
smCharHeight        0x4               main.o
__stderr_fd         0x4               main.o
ApplicationInfo     0x4               main.o
randseed            0x4               stdlib.o
__net_buffer        0x1000            main.o
heap_start          0x4               api.o
foregroung_color    0x4               main.o
prompt_out          0x400             crt0.o
shell_info          0x18              main.o
BufferInfo          0x4               main.o
__stdin_fd          0x4               main.o
ShellHook           0x4               main.o
lineList            0x2000            main.o
wlMaxWindowHeight   0x4               main.o
wlMaxRows           0x4               main.o
environ             0x4               stdio.o
textCurrentCol      0x4               main.o
shell_environment   0x4               main.o
textSavedCol        0x4               main.o
current_volume_id   0x4               main.o
smCharWidth         0x4               main.o
g_current_workingdirectory_id
                    0x4               main.o
g_available_heap    0x4               api.o
wlFullScreenHeight  0x4               main.o
textTopRow          0x4               main.o
xmas_tree_buffer    0x4               main.o
g_heap_pointer      0x4               api.o
textMinWheelDelta   0x4               main.o
g_columns           0x4               crt0.o
my__p               0x4               unistd.o
HEAP_SIZE           0x4               api.o
optind              0x4               unistd.o
mmblockCount        0x4               stdlib.o
dialogbox_button1   0x4               api.o
cpu_window          0x4               main.o
prompt_pos          0x4               crt0.o
stdin               0x4               crt0.o
pathname_lenght     0x4               main.o
last_size           0x4               stdlib.o
wlMinWindowHeight   0x4               main.o
textBottomRow       0x4               main.o
wlMinColumns        0x4               main.o
__Hostname_buffer   0x40              unistd.o
prompt_status       0x4               crt0.o
first_responder     0x4               api.o
__ptsname_buffer    0x40              stdlib.o
objectX             0x4               main.o
pwd_initialized     0x4               main.o
root                0x4               main.o
CurrentCommand      0x4               main.o
shell_name          0x4               main.o
__Login_buffer      0x40              unistd.o
screen_buffer_x     0x4               main.o
wlMinWindowWidth    0x4               main.o
CommandHistory      0x4               main.o
app3_button         0x4               main.o
CPU_USAGE           0x80              main.o
prompt_err          0x400             crt0.o
pwd                 0x4               main.o
screen_buffer       0xfa1             main.o
reboot_button       0x4               main.o
dummycompiler       0x4               main.o
smScreenWidth       0x4               main.o
textMaxWheelDelta   0x4               main.o
CursorInfo          0x4               main.o
app2_button         0x4               main.o
smScreenHeight      0x4               main.o
wlMaxWindowWidth    0x4               main.o
heap_end            0x4               api.o
screen_buffer_pos   0x4               main.o
build_version       0x4               main.o
smCursorWidth       0x4               main.o
wpWindowLeft        0x4               main.o
terminal_rect       0x10              main.o
stderr              0x4               crt0.o
__mb_current_button
                    0x4               api.o
wlFullScreenTop     0x4               main.o
wsWindowWidth       0x4               main.o
__username          0x40              main.o
g_current_disk_id   0x4               main.o
editboxWindow       0x4               main.o
optopt              0x4               unistd.o
hWindow             0x4               main.o
deltaX              0x4               main.o
prompt              0x400             crt0.o
HEAP_END            0x4               api.o
taskbarWindow       0x4               main.o
EOF_Reached         0x4               main.o
g_cursor_y          0x4               crt0.o
screenbufferList    0x20              main.o
ClientAreaInfo      0x4               main.o
messagebox_button2  0x4               api.o
Heap                0x4               api.o
pathname_initilized
                    0x4               main.o
wpWindowTop         0x4               main.o
filename_lenght     0x4               main.o
current_semaphore   0x4               main.o
wlFullScreenWidth   0x4               main.o
shellError          0x4               main.o
dist_version        0x4               main.o
prompt_max          0x4               crt0.o
current_mmblock     0x4               stdlib.o
wlMaxColumns        0x4               main.o
textSavedRow        0x4               main.o
heapCount           0x4               api.o
filename_initilized
                    0x4               main.o
LINES               0x1580            main.o
HEAP_START          0x4               api.o
g_current_volume_id
                    0x4               main.o
current_workingdiretory_string
                    0x20              main.o

Memory Configuration

Name             Origin             Length             Attributes
*default*        0x0000000000000000 0xffffffffffffffff

Linker script and memory map


.text           0x0000000000401000     0xf000
                0x0000000000401000                code = .
                0x0000000000401000                _code = .
                0x0000000000401000                __code = .
 *(.head_x86)
 *(.text)
 .text          0x0000000000401000       0xf2 crt0.o
                0x0000000000401000                crt0
 .text          0x00000000004010f2     0x5d22 main.o
                0x00000000004010f2                fake_sleep
                0x0000000000401111                SendARP
                0x000000000040111b                testSendARP
                0x000000000040118a                __SendMessageToProcess
                0x00000000004011cd                update_cpu_usage
                0x0000000000401282                updateObject
                0x000000000040135a                xmas_tree_create
                0x00000000004013e6                xmas_tree
                0x0000000000401503                quit
                0x0000000000401513                shellProcedure
                0x000000000040199c                shellWaitCmd
                0x00000000004019b5                shellCompare
                0x00000000004044f2                shellInitSystemMetrics
                0x0000000000404595                shellInitWindowLimits
                0x0000000000404690                shellInitWindowSizes
                0x00000000004046d3                shellInitWindowPosition
                0x00000000004046f7                shellShell
                0x000000000040487d                shellInit
                0x000000000040496b                shellCheckPassword
                0x0000000000404c78                shellSetCursor
                0x0000000000404cb3                shellThread
                0x0000000000404d30                shellHelp
                0x0000000000404d49                shellTree
                0x0000000000404d62                shellPrompt
                0x0000000000404de8                shellClearBuffer
                0x0000000000404e92                shellShowScreenBuffer
                0x0000000000404ea0                shellTestLoadFile
                0x0000000000404f0c                shellTestThreads
                0x0000000000404fba                shellClearScreen
                0x0000000000405047                shellRefreshScreen
                0x00000000004050e9                shellRefreshLine
                0x000000000040515f                shellRefreshChar
                0x00000000004051bb                shellRefreshCurrentChar
                0x00000000004051f3                shellScroll
                0x00000000004052b0                shellInsertCharXY
                0x0000000000405305                shellGetCharXY
                0x0000000000405338                testScrollChar
                0x000000000040536e                shellInsertNextChar
                0x000000000040544d                shellInsertCR
                0x0000000000405463                shellInsertLF
                0x0000000000405479                shellInsertNullTerminator
                0x000000000040548f                shellTestMBR
                0x00000000004054ea                move_to
                0x0000000000405516                shellShowInfo
                0x0000000000405581                shellShowMetrics
                0x0000000000405633                shellShowSystemInfo
                0x00000000004056ae                shellShowWindowInfo
                0x0000000000405775                shellSendMessage
                0x0000000000405791                shell_memcpy_bytes
                0x00000000004057be                shellExit
                0x00000000004057d5                shellUpdateWorkingDiretoryString
                0x0000000000405834                shellInitializeWorkingDiretoryString
                0x00000000004058be                shellUpdateCurrentDirectoryID
                0x00000000004058cc                shellTaskList
                0x00000000004059ef                shellShowPID
                0x0000000000405a0e                shellShowPPID
                0x0000000000405a2d                shellShowUID
                0x0000000000405a4c                shellShowGID
                0x0000000000405a6b                shellShowUserSessionID
                0x0000000000405a98                shellShowWindowStationID
                0x0000000000405ac5                shellShowDesktopID
                0x0000000000405af2                shellShowProcessHeapPointer
                0x0000000000405b2e                shellShowKernelHeapPointer
                0x0000000000405b69                shellShowDiskInfo
                0x0000000000405b85                shellShowVolumeInfo
                0x0000000000405ba1                shellShowMemoryInfo
                0x0000000000405bbd                shellShowPCIInfo
                0x0000000000405bd9                shellShowKernelInfo
                0x0000000000405bf5                shell_fntos
                0x0000000000405d0f                shell_gramado_core_init_execve
                0x0000000000405d7a                feedterminalDialog
                0x0000000000405e14                die
                0x0000000000405e56                concat
                0x0000000000405f0c                error
                0x0000000000405f60                fatal
                0x0000000000405f8a                save_string
                0x0000000000405fc6                shellExecuteThisScript
                0x0000000000406073                absolute_pathname
                0x00000000004061d9                shellInitPathname
                0x0000000000406229                shellInitFilename
                0x0000000000406279                shell_pathname_backup
                0x00000000004062f0                shell_print_tokenList
                0x0000000000406394                is_bin
                0x0000000000406405                is_sh1
                0x0000000000406476                show_shell_version
                0x00000000004064a0                shell_save_file
                0x0000000000406615                textSetTopRow
                0x0000000000406623                textGetTopRow
                0x000000000040662d                textSetBottomRow
                0x000000000040663b                textGetBottomRow
                0x0000000000406645                clearLine
                0x00000000004066ad                testShowLines
                0x000000000040674a                shellRefreshVisibleArea
                0x0000000000406836                testChangeVisibleArea
                0x0000000000406860                updateVisibleArea
                0x00000000004068c3                shellSocketTest
                0x0000000000406a0d                main
 .text          0x0000000000406e14      0x3bf net.o
                0x0000000000406e14                __SendARP
                0x000000000040716b                __shellTestARP
 .text          0x00000000004071d3      0x6ee shellui.o
                0x00000000004071d3                shellui_fntos
                0x00000000004072ed                shellTopbarProcedure
                0x000000000040743e                shellCreateEditBox
                0x0000000000407444                shellCreateMainWindow
                0x0000000000407526                testCreateWindow
                0x00000000004075b4                shellDisplayBMP
                0x0000000000407628                shellDisplayBMPEx
                0x00000000004076b4                shellTestDisplayBMP
                0x0000000000407716                bmpDisplayBMP
                0x0000000000407733                shellTestButtons
 .text          0x00000000004078c1     0x21c6 api.o
                0x00000000004078c1                system_call
                0x00000000004078e9                gde_system
                0x0000000000407cf1                system1
                0x0000000000407d12                system2
                0x0000000000407d33                system3
                0x0000000000407d54                system4
                0x0000000000407d75                system5
                0x0000000000407d96                system6
                0x0000000000407db7                system7
                0x0000000000407dd8                system8
                0x0000000000407df9                system9
                0x0000000000407e1a                system10
                0x0000000000407e3b                system11
                0x0000000000407e5c                system12
                0x0000000000407e7d                system13
                0x0000000000407e9e                system14
                0x0000000000407ebf                system15
                0x0000000000407ee0                gde_refresh_buffer
                0x0000000000407fb8                gde_print_string
                0x0000000000407fbe                gde_vsync
                0x0000000000407fd6                gws_vsync
                0x0000000000407fe3                gde_system_procedure
                0x0000000000408026                __gde_set_cursor
                0x0000000000408040                __gde_put_char
                0x0000000000408046                gde_load_bitmap_16x16
                0x000000000040805f                gde_shutdown
                0x0000000000408066                gde_init_background
                0x000000000040806c                gde_message_box
                0x0000000000408371                mbProcedure
                0x000000000040852d                gde_dialog_box
                0x00000000004088e8                dbProcedure
                0x000000000040895e                call_kernel
                0x0000000000408a86                call_gui
                0x0000000000408b1b                gde_create_window
                0x0000000000408b94                gde_register_window
                0x0000000000408bbc                gde_close_window
                0x0000000000408be4                gde_set_focus
                0x0000000000408c0c                gde_get_focus
                0x0000000000408c21                gde_kill_focus
                0x0000000000408c49                gde_set_active_window
                0x0000000000408c71                gde_get_active_window
                0x0000000000408c86                gde_show_current_process_info
                0x0000000000408c9c                gde_resize_window
                0x0000000000408cb9                gde_redraw_window
                0x0000000000408cd6                gde_replace_window
                0x0000000000408cf0                gde_maximize_window
                0x0000000000408d0f                gde_minimize_window
                0x0000000000408d2e                gde_update_window
                0x0000000000408d50                gde_get_foregroung_window
                0x0000000000408d66                gde_set_foregroung_window
                0x0000000000408d82                gde_exit
                0x0000000000408d9f                gde_kill
                0x0000000000408da5                gde_dead_thread_collector
                0x0000000000408dbb                gde_strncmp
                0x0000000000408e1e                gde_show_backbuffer
                0x0000000000408e34                gde_reboot
                0x0000000000408e4d                gde_set_cursor
                0x0000000000408e65                gde_get_cursor
                0x0000000000408e6b                gde_get_cursor_x
                0x0000000000408e86                gde_get_cursor_y
                0x0000000000408ea1                gde_get_client_area_rect
                0x0000000000408eb9                gde_set_client_area_rect
                0x0000000000408ed8                gde_create_process
                0x0000000000408ef1                gde_create_thread
                0x0000000000408f0a                gde_start_thread
                0x0000000000408f26                gde_fopen
                0x0000000000408f52                gde_save_file
                0x0000000000408fa5                gde_create_empty_file
                0x0000000000408fcf                gde_create_empty_directory
                0x0000000000408ff9                gde_down
                0x000000000040904e                gde_up
                0x00000000004090a3                gde_enter_critical_section
                0x00000000004090de                gde_exit_critical_section
                0x00000000004090f7                gde_p
                0x00000000004090fd                gde_v
                0x0000000000409103                gde_initialize_critical_section
                0x000000000040911c                gde_begin_paint
                0x0000000000409127                gde_end_paint
                0x0000000000409132                gde_put_char
                0x000000000040914e                gde_def_dialog
                0x0000000000409158                gde_get_system_metrics
                0x0000000000409176                gde_dialog
                0x000000000040920f                gde_getchar
                0x000000000040922a                gde_display_bmp
                0x0000000000409631                gde_send_message_to_process
                0x0000000000409674                gde_send_message_to_thread
                0x00000000004096b7                gde_send_message
                0x00000000004096ed                gde_draw_text
                0x000000000040972c                gde_get_ws_screen_window
                0x0000000000409744                gde_get_ws_main_window
                0x000000000040975c                gde_create_timer
                0x000000000040977c                gde_get_systime_info
                0x000000000040979d                gde_show_window
                0x00000000004097bc                gde_start_terminal
                0x0000000000409830                gde_update_statusbar
                0x000000000040984e                gde_get_pid
                0x0000000000409879                gde_get_screen_window
                0x0000000000409894                gde_get_background_window
                0x00000000004098af                gde_get_main_window
                0x00000000004098ca                gde_getprocessname
                0x0000000000409947                gde_getthreadname
                0x00000000004099c4                gde_get_process_stats
                0x00000000004099e2                gde_get_thread_stats
                0x0000000000409a00                gde_debug_print
                0x0000000000409a22                gde_clone_and_execute
                0x0000000000409a3f                gde_setup_net_buffer
                0x0000000000409a66                execute_new_process
 .text          0x0000000000409a87        0x0 ctype.o
 .text          0x0000000000409a87     0x328b stdio.o
                0x0000000000409acf                stdio_atoi
                0x0000000000409b96                stdio_fntos
                0x0000000000409cc0                debug_print
                0x0000000000409ce2                remove
                0x0000000000409cec                fclose
                0x0000000000409d1a                fopen
                0x0000000000409e32                creat
                0x0000000000409e59                scroll
                0x0000000000409f26                fread
                0x0000000000409f47                fwrite
                0x0000000000409f68                prompt_putchar
                0x0000000000409fb8                prompt_put_string
                0x0000000000409fe5                prompt_strcat
                0x000000000040a012                prompt_flush
                0x000000000040a076                prompt_clean
                0x000000000040a486                printf3
                0x000000000040a4a3                printf_atoi
                0x000000000040a594                printf_i2hex
                0x000000000040a5f6                printf2
                0x000000000040a77b                stdio_nextline
                0x000000000040a7b9                nlsprintf
                0x000000000040a7f7                sprintf
                0x000000000040a84c                libc_set_output_mode
                0x000000000040a890                outbyte
                0x000000000040aa84                _outbyte
                0x000000000040aab3                input
                0x000000000040ac13                stdioInitialize
                0x000000000040ad59                fflush
                0x000000000040ad99                __fflush
                0x000000000040ae87                __getc
                0x000000000040af32                __putc
                0x000000000040afd7                getc
                0x000000000040afed                putc
                0x000000000040b006                fgetc
                0x000000000040b01c                fputc
                0x000000000040b035                getchar
                0x000000000040b04e                putchar
                0x000000000040b06a                gets
                0x000000000040b0ac                puts
                0x000000000040b0e6                fgets
                0x000000000040b141                fputs
                0x000000000040b175                getw
                0x000000000040b1b6                putw
                0x000000000040b1e5                fprintf
                0x000000000040b283                nputs
                0x000000000040b2be                ungetc
                0x000000000040b2ec                ftell
                0x000000000040b31a                fileno
                0x000000000040b348                __gramado__getc
                0x000000000040b3f3                feof
                0x000000000040b421                ferror
                0x000000000040b44f                fseek
                0x000000000040b47d                __serenity_fflush
                0x000000000040b51e                __serenity_fputc
                0x000000000040b5c3                __serenity_putc
                0x000000000040b5dc                stdioSetCursor
                0x000000000040b5f7                stdioGetCursorX
                0x000000000040b612                stdioGetCursorY
                0x000000000040b62d                scanf
                0x000000000040b7ce                sscanf
                0x000000000040b989                kvprintf
                0x000000000040c7f3                printf
                0x000000000040c821                printf_draw
                0x000000000040c869                vfprintf
                0x000000000040c8e1                vprintf
                0x000000000040c910                stdout_printf
                0x000000000040c94c                stderr_printf
                0x000000000040c988                perror
                0x000000000040c99f                rewind
                0x000000000040c9cd                snprintf
                0x000000000040c9e1                stdio_initialize_standard_streams
                0x000000000040ca3c                libcStartTerminal
                0x000000000040cab0                setbuf
                0x000000000040cada                setbuffer
                0x000000000040cb04                setlinebuf
                0x000000000040cb2e                setvbuf
                0x000000000040cb5c                filesize
                0x000000000040cba5                fileread
                0x000000000040cbf3                dprintf
                0x000000000040cc0a                vdprintf
                0x000000000040cc14                vsprintf
                0x000000000040cc1e                vsnprintf
                0x000000000040cc28                vscanf
                0x000000000040cc32                vsscanf
                0x000000000040cc3c                vfscanf
                0x000000000040cc53                tmpnam
                0x000000000040cc5d                tmpnam_r
                0x000000000040cc67                tempnam
                0x000000000040cc71                tmpfile
                0x000000000040cc7b                fdopen
                0x000000000040cc85                freopen
                0x000000000040cc9c                open_memstream
                0x000000000040cca6                open_wmemstream
                0x000000000040ccb0                fmemopen
                0x000000000040ccba                fgetpos
                0x000000000040ccd1                fsetpos
                0x000000000040cce8                fpurge
                0x000000000040ccff                __fpurge
                0x000000000040cd08                ctermid
 .text          0x000000000040cd12     0x11a0 stdlib.o
                0x000000000040cd2f                rtGetHeapStart
                0x000000000040cd39                rtGetHeapEnd
                0x000000000040cd43                rtGetHeapPointer
                0x000000000040cd4d                rtGetAvailableHeap
                0x000000000040cd57                heapSetLibcHeap
                0x000000000040ce0a                heapAllocateMemory
                0x000000000040d03c                FreeHeap
                0x000000000040d046                heapInit
                0x000000000040d1d9                stdlibInitMM
                0x000000000040d23c                libcInitRT
                0x000000000040d25e                mktemp
                0x000000000040d268                rand
                0x000000000040d285                srand
                0x000000000040d293                xmalloc
                0x000000000040d2c5                stdlib_die
                0x000000000040d2fb                malloc
                0x000000000040d337                realloc
                0x000000000040d374                free
                0x000000000040d37a                calloc
                0x000000000040d3c0                zmalloc
                0x000000000040d3fc                system
                0x000000000040d7c0                stdlib_strncmp
                0x000000000040d823                __findenv
                0x000000000040d944                getenv
                0x000000000040d971                setenv
                0x000000000040d97b                unsetenv
                0x000000000040d985                atoi
                0x000000000040da4c                reverse
                0x000000000040dab4                itoa
                0x000000000040db62                abs
                0x000000000040db72                strtod
                0x000000000040dda3                strtof
                0x000000000040ddbf                strtold
                0x000000000040ddd2                atof
                0x000000000040dde4                labs
                0x000000000040ddf4                mkstemp
                0x000000000040ddfe                mkostemp
                0x000000000040de08                mkstemps
                0x000000000040de12                mkostemps
                0x000000000040de1c                ptsname
                0x000000000040de42                ptsname_r
                0x000000000040de69                posix_openpt
                0x000000000040de84                grantpt
                0x000000000040de8e                getpt
                0x000000000040de98                unlockpt
                0x000000000040dea2                getprogname
                0x000000000040deac                setprogname
 .text          0x000000000040deb2      0xb90 string.o
                0x000000000040deb2                strcoll
                0x000000000040decb                memsetw
                0x000000000040def7                memcmp
                0x000000000040df5c                strdup
                0x000000000040dfae                strndup
                0x000000000040e00f                strnchr
                0x000000000040e048                strrchr
                0x000000000040e083                strtoimax
                0x000000000040e08d                strtoumax
                0x000000000040e097                strcasecmp
                0x000000000040e0ff                strncpy
                0x000000000040e155                strcmp
                0x000000000040e1ba                strncmp
                0x000000000040e21f                gramado_strncmp
                0x000000000040e282                memset
                0x000000000040e2c9                memoryZeroMemory
                0x000000000040e2f0                memcpy
                0x000000000040e32d                strcpy
                0x000000000040e361                strlcpy
                0x000000000040e3c0                strcat
                0x000000000040e3ef                strchrnul
                0x000000000040e414                strlcat
                0x000000000040e4a4                strncat
                0x000000000040e506                bcopy
                0x000000000040e533                bzero
                0x000000000040e554                strlen
                0x000000000040e582                strnlen
                0x000000000040e5bd                strpbrk
                0x000000000040e60b                strsep
                0x000000000040e689                strreplace
                0x000000000040e6c4                strcspn
                0x000000000040e763                strspn
                0x000000000040e802                strtok_r
                0x000000000040e8e9                strtok
                0x000000000040e901                strchr
                0x000000000040e92d                memmove
                0x000000000040e9ae                memscan
                0x000000000040e9e2                strstr
 .text          0x000000000040ea42       0x89 conio.o
                0x000000000040ea42                putch
                0x000000000040ea66                cputs
                0x000000000040ea9b                getch
                0x000000000040eab3                getche
 .text          0x000000000040eacb      0x184 builtins.o
                0x000000000040eacb                cd_buitins
                0x000000000040eae4                cls_builtins
                0x000000000040eaf2                copy_builtins
                0x000000000040eaf8                date_builtins
                0x000000000040eafe                del_builtins
                0x000000000040eb04                dir_builtins
                0x000000000040eb40                echo_builtins
                0x000000000040eb5c                exec_builtins
                0x000000000040eb75                exit_builtins
                0x000000000040eb9b                getpid_builtins
                0x000000000040ebad                getppid_builtins
                0x000000000040ebbf                getuid_builtins
                0x000000000040ebd1                getgid_builtins
                0x000000000040ebe3                help_builtins
                0x000000000040ec33                pwd_builtins
 .text          0x000000000040ec4f       0x49 desktop.o
                0x000000000040ec4f                desktopInitialize
 .text          0x000000000040ec98      0x60f unistd.o
                0x000000000040ec98                execv
                0x000000000040ecb6                execve
                0x000000000040ed15                read_ttyList
                0x000000000040ed43                write_ttyList
                0x000000000040ed71                read_VC
                0x000000000040ed9f                write_VC
                0x000000000040edcd                read
                0x000000000040edf8                write
                0x000000000040ee23                exit
                0x000000000040ee43                fork
                0x000000000040ee5b                setuid
                0x000000000040ee76                getuid
                0x000000000040ee91                geteuid
                0x000000000040ee9b                getpid
                0x000000000040eeb3                getppid
                0x000000000040eecb                getgid
                0x000000000040eee6                dup
                0x000000000040ef00                dup2
                0x000000000040ef1c                dup3
                0x000000000040ef3a                fcntl
                0x000000000040ef44                getpriority
                0x000000000040ef4e                setpriority
                0x000000000040ef58                nice
                0x000000000040ef62                pause
                0x000000000040ef6c                mkdir
                0x000000000040ef80                rmdir
                0x000000000040ef8a                link
                0x000000000040ef94                unlink
                0x000000000040ef9e                mlock
                0x000000000040efa8                munlock
                0x000000000040efb2                mlockall
                0x000000000040efbc                munlockall
                0x000000000040efc6                sysconf
                0x000000000040efd0                fsync
                0x000000000040efda                fdatasync
                0x000000000040efe4                open
                0x000000000040f00a                close
                0x000000000040f028                pipe
                0x000000000040f049                fpathconf
                0x000000000040f053                pathconf
                0x000000000040f05d                __gethostname
                0x000000000040f089                gethostname
                0x000000000040f0ad                sethostname
                0x000000000040f0cb                getlogin
                0x000000000040f0f7                setlogin
                0x000000000040f11d                getusername
                0x000000000040f197                setusername
                0x000000000040f20b                ttyname
                0x000000000040f248                ttyname_r
                0x000000000040f252                isatty
                0x000000000040f275                getopt
                0x000000000040f27f                xxx_todo_int133
 .text          0x000000000040f2a7      0x1ad socket.o
                0x000000000040f2a7                listen
                0x000000000040f2b1                recv
                0x000000000040f2cd                send
                0x000000000040f2e9                shutdown
                0x000000000040f2f3                socket
                0x000000000040f337                socket_pipe
                0x000000000040f358                socketpair
                0x000000000040f3ce                connect
                0x000000000040f411                bind
 .text          0x000000000040f454       0x49 wait.o
                0x000000000040f454                wait
                0x000000000040f46e                waitpid
 .text          0x000000000040f49d      0x165 termios.o
                0x000000000040f49d                tcgetattr
                0x000000000040f4bb                tcsetattr
                0x000000000040f534                tcsendbreak
                0x000000000040f53e                tcdrain
                0x000000000040f548                tcflush
                0x000000000040f552                tcflow
                0x000000000040f55c                cfmakeraw
                0x000000000040f5ce                cfgetispeed
                0x000000000040f5d9                cfgetospeed
                0x000000000040f5e4                cfsetispeed
                0x000000000040f5ee                cfsetospeed
                0x000000000040f5f8                cfsetspeed
 .text          0x000000000040f602       0x3d ioctl.o
                0x000000000040f602                ioctl
 .text          0x000000000040f63f       0x28 stubs.o
                0x000000000040f63f                gramado_system_call
                0x0000000000410000                . = ALIGN (0x1000)
 *fill*         0x000000000040f667      0x999 

.iplt           0x0000000000410000        0x0
 .iplt          0x0000000000410000        0x0 crt0.o

.rodata         0x0000000000410000     0x44c3
 .rodata        0x0000000000410000       0x36 crt0.o
 *fill*         0x0000000000410036        0xa 
 .rodata        0x0000000000410040     0x1e0c main.o
 *fill*         0x0000000000411e4c       0x14 
 .rodata        0x0000000000411e60      0x536 net.o
 *fill*         0x0000000000412396        0xa 
 .rodata        0x00000000004123a0      0x6cf shellui.o
 *fill*         0x0000000000412a6f        0x1 
 .rodata        0x0000000000412a70      0x505 api.o
 *fill*         0x0000000000412f75        0xb 
 .rodata        0x0000000000412f80      0x100 ctype.o
                0x0000000000412f80                _ctype
 .rodata        0x0000000000413080      0x4a9 stdio.o
                0x0000000000413360                hex2ascii_data
 *fill*         0x0000000000413529        0x7 
 .rodata        0x0000000000413530      0x560 stdlib.o
 .rodata        0x0000000000413a90        0x6 conio.o
 *fill*         0x0000000000413a96        0xa 
 .rodata        0x0000000000413aa0      0x49a builtins.o
 *fill*         0x0000000000413f3a        0x6 
 .rodata        0x0000000000413f40      0x48f desktop.o
 *fill*         0x00000000004143cf        0x1 
 .rodata        0x00000000004143d0       0x89 unistd.o
 *fill*         0x0000000000414459        0x3 
 .rodata        0x000000000041445c       0x67 socket.o

.eh_frame       0x00000000004144c4     0x41d0
 .eh_frame      0x00000000004144c4       0x34 crt0.o
 .eh_frame      0x00000000004144f8      0xd54 main.o
                                        0xd6c (size before relaxing)
 .eh_frame      0x000000000041524c       0x4c net.o
                                         0x64 (size before relaxing)
 .eh_frame      0x0000000000415298      0x144 shellui.o
                                        0x15c (size before relaxing)
 .eh_frame      0x00000000004153dc      0xdac api.o
                                        0xdc4 (size before relaxing)
 .eh_frame      0x0000000000416188      0xde8 stdio.o
                                        0xe00 (size before relaxing)
 .eh_frame      0x0000000000416f70      0x600 stdlib.o
                                        0x618 (size before relaxing)
 .eh_frame      0x0000000000417570      0x4e0 string.o
                                        0x4f8 (size before relaxing)
 .eh_frame      0x0000000000417a50       0xa0 conio.o
                                         0xb8 (size before relaxing)
 .eh_frame      0x0000000000417af0      0x1e0 builtins.o
                                        0x1f8 (size before relaxing)
 .eh_frame      0x0000000000417cd0       0x20 desktop.o
                                         0x38 (size before relaxing)
 .eh_frame      0x0000000000417cf0      0x680 unistd.o
                                        0x698 (size before relaxing)
 .eh_frame      0x0000000000418370      0x120 socket.o
                                        0x138 (size before relaxing)
 .eh_frame      0x0000000000418490       0x40 wait.o
                                         0x58 (size before relaxing)
 .eh_frame      0x00000000004184d0      0x180 termios.o
                                        0x198 (size before relaxing)
 .eh_frame      0x0000000000418650       0x20 ioctl.o
                                         0x38 (size before relaxing)
 .eh_frame      0x0000000000418670       0x24 stubs.o
                                         0x3c (size before relaxing)

.rel.dyn        0x0000000000418694        0x0
 .rel.got       0x0000000000418694        0x0 crt0.o
 .rel.iplt      0x0000000000418694        0x0 crt0.o
 .rel.text      0x0000000000418694        0x0 crt0.o

.data           0x00000000004186a0     0x2960
                0x00000000004186a0                data = .
                0x00000000004186a0                _data = .
                0x00000000004186a0                __data = .
 *(.data)
 .data          0x00000000004186a0       0x24 crt0.o
 *fill*         0x00000000004186c4       0x1c 
 .data          0x00000000004186e0      0x53c main.o
                0x0000000000418b74                _running
                0x0000000000418b78                the_current_maintainer
                0x0000000000418b7c                primary_prompt
                0x0000000000418b80                secondary_prompt
                0x0000000000418b84                interactive
                0x0000000000418b88                remember_on_history
                0x0000000000418b8c                current_command_number
                0x0000000000418b90                bashrc_file
                0x0000000000418b94                shell_config_file
                0x0000000000418ba0                long_args
                0x0000000000418c18                deltaValue
 *fill*         0x0000000000418c1c        0x4 
 .data          0x0000000000418c20      0x492 net.o
 *fill*         0x00000000004190b2        0xe 
 .data          0x00000000004190c0      0x492 shellui.o
 *fill*         0x0000000000419552        0xe 
 .data          0x0000000000419560      0x440 api.o
 .data          0x00000000004199a0        0x0 ctype.o
 .data          0x00000000004199a0        0x0 stdio.o
 .data          0x00000000004199a0        0x8 stdlib.o
                0x00000000004199a0                _infinity
 .data          0x00000000004199a8        0x0 string.o
 .data          0x00000000004199a8        0x0 conio.o
 *fill*         0x00000000004199a8       0x18 
 .data          0x00000000004199c0      0x492 builtins.o
 *fill*         0x0000000000419e52        0xe 
 .data          0x0000000000419e60      0x49c desktop.o
                0x000000000041a2f4                primary_desktop_folder
                0x000000000041a2f8                secondary_desktop_folder
 .data          0x000000000041a2fc        0x0 unistd.o
 .data          0x000000000041a2fc        0x0 socket.o
 .data          0x000000000041a2fc        0x0 wait.o
 .data          0x000000000041a2fc        0x0 termios.o
 .data          0x000000000041a2fc        0x0 ioctl.o
 .data          0x000000000041a2fc        0x0 stubs.o
                0x000000000041b000                . = ALIGN (0x1000)
 *fill*         0x000000000041a2fc      0xd04 

.got            0x000000000041b000        0x0
 .got           0x000000000041b000        0x0 crt0.o

.got.plt        0x000000000041b000        0x0
 .got.plt       0x000000000041b000        0x0 crt0.o

.igot.plt       0x000000000041b000        0x0
 .igot.plt      0x000000000041b000        0x0 crt0.o

.bss            0x000000000041b000    0x17f84
                0x000000000041b000                bss = .
                0x000000000041b000                _bss = .
                0x000000000041b000                __bss = .
 *(.bss)
 .bss           0x000000000041b000        0x0 crt0.o
 .bss           0x000000000041b000       0x68 main.o
                0x000000000041b000                ShellFlag
                0x000000000041b004                executing
                0x000000000041b008                login_status
                0x000000000041b00c                shell_initialized
                0x000000000041b010                global_command
                0x000000000041b014                interrupt_state
                0x000000000041b018                login_shell
                0x000000000041b01c                restricted
                0x000000000041b020                debugging_login_shell
                0x000000000041b024                indirection_level
                0x000000000041b028                shell_level
                0x000000000041b02c                act_like_sh
                0x000000000041b030                debugging
                0x000000000041b034                no_rc
                0x000000000041b038                no_profile
                0x000000000041b03c                do_version
                0x000000000041b040                quiet
                0x000000000041b044                make_login_shell
                0x000000000041b048                no_line_editing
                0x000000000041b04c                no_brace_expansion
                0x000000000041b050                sm_initialized
                0x000000000041b054                wl_initialized
                0x000000000041b058                ws_initialized
                0x000000000041b05c                wp_initialized
 .bss           0x000000000041b068       0x10 net.o
                0x000000000041b068                host_mac_address
 .bss           0x000000000041b078        0x8 shellui.o
 .bss           0x000000000041b080     0x8004 api.o
 .bss           0x0000000000423084        0x0 ctype.o
 .bss           0x0000000000423084        0x9 stdio.o
 *fill*         0x000000000042308d       0x13 
 .bss           0x00000000004230a0     0x8000 stdlib.o
 .bss           0x000000000042b0a0        0x4 string.o
 .bss           0x000000000042b0a4        0x0 conio.o
 .bss           0x000000000042b0a4        0x8 builtins.o
 .bss           0x000000000042b0ac        0x8 desktop.o
 *fill*         0x000000000042b0b4        0xc 
 .bss           0x000000000042b0c0      0x11f unistd.o
                0x000000000042b0c0                __execv_environ
 .bss           0x000000000042b1df        0x0 socket.o
 .bss           0x000000000042b1df        0x0 wait.o
 .bss           0x000000000042b1df        0x0 termios.o
 .bss           0x000000000042b1df        0x0 ioctl.o
 .bss           0x000000000042b1df        0x0 stubs.o
                0x000000000042c000                . = ALIGN (0x1000)
 *fill*         0x000000000042b1df      0xe21 
 COMMON         0x000000000042c000      0xd08 crt0.o
                0x000000000042c000                g_cursor_x
                0x000000000042c004                stdout
                0x000000000042c008                __libc_tty_id
                0x000000000042c00c                g_char_attrib
                0x000000000042c010                g_rows
                0x000000000042c020                Streams
                0x000000000042c0a0                g_using_gui
                0x000000000042c0c0                prompt_out
                0x000000000042c4c0                g_columns
                0x000000000042c4c4                prompt_pos
                0x000000000042c4c8                stdin
                0x000000000042c4cc                prompt_status
                0x000000000042c4e0                prompt_err
                0x000000000042c8e0                stderr
                0x000000000042c900                prompt
                0x000000000042cd00                g_cursor_y
                0x000000000042cd04                prompt_max
 *fill*         0x000000000042cd08       0x18 
 COMMON         0x000000000042cd20     0x58c0 main.o
                0x000000000042cd20                password
                0x000000000042cd2c                objectY
                0x000000000042cd30                CurrentWindow
                0x000000000042cd34                backgroung_color
                0x000000000042cd38                wsWindowHeight
                0x000000000042cd3c                menu_button
                0x000000000042cd40                screen_buffer_y
                0x000000000042cd44                wlFullScreenLeft
                0x000000000042cd48                username
                0x000000000042cd54                close_button
                0x000000000042cd58                smCursorHeight
                0x000000000042cd60                pathname_buffer
                0x000000000042cda0                deltaY
                0x000000000042cda4                textCurrentRow
                0x000000000042cda8                app4_button
                0x000000000042cdac                shellStatus
                0x000000000042cdb0                smMousePointerWidth
                0x000000000042cdb4                smMousePointerHeight
                0x000000000042cdb8                filename_buffer
                0x000000000042cdc4                xmas_tree_window
                0x000000000042cdc8                textWheelDelta
                0x000000000042cdcc                app1_button
                0x000000000042cdd0                __count
                0x000000000042cdd4                __stdout_fd
                0x000000000042cdd8                wlMinRows
                0x000000000042cddc                current_volume_string
                0x000000000042cde0                ShellMetrics
                0x000000000042cde4                smCharHeight
                0x000000000042cde8                __stderr_fd
                0x000000000042cdec                ApplicationInfo
                0x000000000042ce00                __net_buffer
                0x000000000042de00                foregroung_color
                0x000000000042de04                shell_info
                0x000000000042de1c                BufferInfo
                0x000000000042de20                __stdin_fd
                0x000000000042de24                ShellHook
                0x000000000042de40                lineList
                0x000000000042fe40                wlMaxWindowHeight
                0x000000000042fe44                wlMaxRows
                0x000000000042fe48                textCurrentCol
                0x000000000042fe4c                shell_environment
                0x000000000042fe50                textSavedCol
                0x000000000042fe54                current_volume_id
                0x000000000042fe58                smCharWidth
                0x000000000042fe5c                g_current_workingdirectory_id
                0x000000000042fe60                wlFullScreenHeight
                0x000000000042fe64                textTopRow
                0x000000000042fe68                xmas_tree_buffer
                0x000000000042fe6c                textMinWheelDelta
                0x000000000042fe70                cpu_window
                0x000000000042fe74                pathname_lenght
                0x000000000042fe78                wlMinWindowHeight
                0x000000000042fe7c                textBottomRow
                0x000000000042fe80                wlMinColumns
                0x000000000042fe84                objectX
                0x000000000042fe88                pwd_initialized
                0x000000000042fe8c                root
                0x000000000042fe90                CurrentCommand
                0x000000000042fe94                shell_name
                0x000000000042fe98                screen_buffer_x
                0x000000000042fe9c                wlMinWindowWidth
                0x000000000042fea0                CommandHistory
                0x000000000042fea4                app3_button
                0x000000000042fec0                CPU_USAGE
                0x000000000042ff40                pwd
                0x000000000042ff60                screen_buffer
                0x0000000000430f04                reboot_button
                0x0000000000430f08                dummycompiler
                0x0000000000430f0c                smScreenWidth
                0x0000000000430f10                textMaxWheelDelta
                0x0000000000430f14                CursorInfo
                0x0000000000430f18                app2_button
                0x0000000000430f1c                smScreenHeight
                0x0000000000430f20                wlMaxWindowWidth
                0x0000000000430f24                screen_buffer_pos
                0x0000000000430f28                build_version
                0x0000000000430f2c                smCursorWidth
                0x0000000000430f30                wpWindowLeft
                0x0000000000430f34                terminal_rect
                0x0000000000430f44                wlFullScreenTop
                0x0000000000430f48                wsWindowWidth
                0x0000000000430f60                __username
                0x0000000000430fa0                g_current_disk_id
                0x0000000000430fa4                editboxWindow
                0x0000000000430fa8                hWindow
                0x0000000000430fac                deltaX
                0x0000000000430fb0                taskbarWindow
                0x0000000000430fb4                EOF_Reached
                0x0000000000430fc0                screenbufferList
                0x0000000000430fe0                ClientAreaInfo
                0x0000000000430fe4                pathname_initilized
                0x0000000000430fe8                wpWindowTop
                0x0000000000430fec                filename_lenght
                0x0000000000430ff0                current_semaphore
                0x0000000000430ff4                wlFullScreenWidth
                0x0000000000430ff8                shellError
                0x0000000000430ffc                dist_version
                0x0000000000431000                wlMaxColumns
                0x0000000000431004                textSavedRow
                0x0000000000431008                filename_initilized
                0x0000000000431020                LINES
                0x00000000004325a0                g_current_volume_id
                0x00000000004325c0                current_workingdiretory_string
 COMMON         0x00000000004325e0      0x440 api.o
                0x00000000004325e0                heapList
                0x00000000004329e0                libcHeap
                0x00000000004329e4                dialogbox_button2
                0x00000000004329e8                messagebox_button1
                0x00000000004329ec                heap_start
                0x00000000004329f0                g_available_heap
                0x00000000004329f4                g_heap_pointer
                0x00000000004329f8                HEAP_SIZE
                0x00000000004329fc                dialogbox_button1
                0x0000000000432a00                first_responder
                0x0000000000432a04                heap_end
                0x0000000000432a08                __mb_current_button
                0x0000000000432a0c                HEAP_END
                0x0000000000432a10                messagebox_button2
                0x0000000000432a14                Heap
                0x0000000000432a18                heapCount
                0x0000000000432a1c                HEAP_START
 COMMON         0x0000000000432a20        0x4 stdio.o
                0x0000000000432a20                environ
 *fill*         0x0000000000432a24       0x1c 
 COMMON         0x0000000000432a40      0x484 stdlib.o
                0x0000000000432a40                mm_prev_pointer
                0x0000000000432a60                mmblockList
                0x0000000000432e60                last_valid
                0x0000000000432e64                randseed
                0x0000000000432e68                mmblockCount
                0x0000000000432e6c                last_size
                0x0000000000432e80                __ptsname_buffer
                0x0000000000432ec0                current_mmblock
 *fill*         0x0000000000432ec4       0x1c 
 COMMON         0x0000000000432ee0       0xa4 unistd.o
                0x0000000000432ee0                errno
                0x0000000000432ee4                optarg
                0x0000000000432ee8                opterr
                0x0000000000432eec                my__p
                0x0000000000432ef0                optind
                0x0000000000432f00                __Hostname_buffer
                0x0000000000432f40                __Login_buffer
                0x0000000000432f80                optopt
                0x0000000000432f84                end = .
                0x0000000000432f84                _end = .
                0x0000000000432f84                __end = .
LOAD crt0.o
LOAD main.o
LOAD net.o
LOAD shellui.o
LOAD api.o
LOAD ctype.o
LOAD stdio.o
LOAD stdlib.o
LOAD string.o
LOAD conio.o
LOAD builtins.o
LOAD desktop.o
LOAD unistd.o
LOAD socket.o
LOAD wait.o
LOAD termios.o
LOAD ioctl.o
LOAD stubs.o
OUTPUT(GDESHELL.BIN elf32-i386)

.comment        0x0000000000000000       0x11
 .comment       0x0000000000000000       0x11 crt0.o
                                         0x12 (size before relaxing)
 .comment       0x0000000000000011       0x12 main.o
 .comment       0x0000000000000011       0x12 net.o
 .comment       0x0000000000000011       0x12 shellui.o
 .comment       0x0000000000000011       0x12 api.o
 .comment       0x0000000000000011       0x12 ctype.o
 .comment       0x0000000000000011       0x12 stdio.o
 .comment       0x0000000000000011       0x12 stdlib.o
 .comment       0x0000000000000011       0x12 string.o
 .comment       0x0000000000000011       0x12 conio.o
 .comment       0x0000000000000011       0x12 builtins.o
 .comment       0x0000000000000011       0x12 desktop.o
 .comment       0x0000000000000011       0x12 unistd.o
 .comment       0x0000000000000011       0x12 socket.o
 .comment       0x0000000000000011       0x12 wait.o
 .comment       0x0000000000000011       0x12 termios.o
 .comment       0x0000000000000011       0x12 ioctl.o
 .comment       0x0000000000000011       0x12 stubs.o

.note.GNU-stack
                0x0000000000000000        0x0
 .note.GNU-stack
                0x0000000000000000        0x0 crt0.o
 .note.GNU-stack
                0x0000000000000000        0x0 main.o
 .note.GNU-stack
                0x0000000000000000        0x0 net.o
 .note.GNU-stack
                0x0000000000000000        0x0 shellui.o
 .note.GNU-stack
                0x0000000000000000        0x0 api.o
 .note.GNU-stack
                0x0000000000000000        0x0 ctype.o
 .note.GNU-stack
                0x0000000000000000        0x0 stdio.o
 .note.GNU-stack
                0x0000000000000000        0x0 stdlib.o
 .note.GNU-stack
                0x0000000000000000        0x0 string.o
 .note.GNU-stack
                0x0000000000000000        0x0 conio.o
 .note.GNU-stack
                0x0000000000000000        0x0 builtins.o
 .note.GNU-stack
                0x0000000000000000        0x0 desktop.o
 .note.GNU-stack
                0x0000000000000000        0x0 unistd.o
 .note.GNU-stack
                0x0000000000000000        0x0 socket.o
 .note.GNU-stack
                0x0000000000000000        0x0 wait.o
 .note.GNU-stack
                0x0000000000000000        0x0 termios.o
 .note.GNU-stack
                0x0000000000000000        0x0 ioctl.o
 .note.GNU-stack
                0x0000000000000000        0x0 stubs.o
