
Allocating common symbols
Common symbol       size              file

_timerShowTextCursor
                    0x4               pit.o
_framepoolBackBuffer3
                    0x4               main.o
_guiMenu            0x4               main.o
_usessionList       0x40              main.o
_terminalOffsetMax  0x4               main.o
_g_backbuffer_va    0x4               main.o
_blSavedCylinders   0x4               main.o
_g_module_volume_initialized
                    0x4               main.o
_server_stdio       0x4               main.o
_menuList           0x400             main.o
_Graphics           0x4               main.o
_framepoolList      0x1000            main.o
_dispatcherType     0x4               main.o
_pci_handler_address
                    0x4               main.o
_xxxinini           0x4               input.o
_kgws_mouse_event_old_mouse_buttom_2
                    0x4               kgws.o
_kgws_mouse_event_mouse_buttom_2
                    0x4               kgws.o
_mainButton3        0x4               main.o
_zicaaaaadasf       0x4               main.o
_contextESP         0x4               x86cont.o
_Irq9               0x4               main.o
_g_profiler_ints_irq13
                    0x4               main.o
_g_frontbuffer_va   0x4               main.o
_clientCW           0x4               main.o
_userconfig_Status  0x4               main.o
_prompt             0x100             main.o
_contextEDX         0x4               x86cont.o
_MenuBar            0x4               main.o
_semaforo_color     0x4               main.o
_g_module_debug_initialized
                    0x4               main.o
_threadList         0x1000            main.o
_MEDIUM_extraheap3_address
                    0x4               main.o
_pci_device         0x4               main.o
_Windows            0x1000            main.o
_g_module_disk_initialized
                    0x4               main.o
_current_runlevel   0x4               main.o
_terminalOffset     0x4               main.o
_kernel_heap_end    0x4               main.o
_MEDIUM_user_address
                    0x4               main.o
_MEDIUM_extraheap1_address
                    0x4               main.o
_kgws_ws_status     0x4               kgws.o
_scrolllock_status  0x4               main.o
_screenGrid         0x200             main.o
_MEDIUM_backbuffer_address
                    0x4               main.o
_wait_queue         0x4               main.o
_windowzoneStart    0x4               main.o
_mm_used_extraheap1
                    0x4               main.o
_partition          0x4               main.o
_cwArg1             0x4               gde_serv.o
_save_client_rect_top
                    0x4               wm.o
_dma_addr           0x4               ata.o
_fatbits            0x4               main.o
_g9x14fontAddress   0x4               main.o
_framepoolBackBuffer2
                    0x4               main.o
_CurrentChannel     0x4               main.o
_kgws_mouse_event_old_mouse_buttom_1
                    0x4               kgws.o
_task_switch_status
                    0x4               main.o
_ata_record_dev     0x1               main.o
_systemzoneEnd      0x4               main.o
_lineOffsetMax      0x4               main.o
_serverSP           0x4               main.o
_LocalHostHTTPSocket
                    0x4               main.o
_ioControl_mouse    0x4               main.o
_GRID               0x4               main.o
_cursorIconBuffer   0x4               main.o
_preempted_task     0x4               main.o
_ActiveWindow       0x4               main.o
_GRAMADOCORE        0x110             ipccore.o
_mouse_buttom_3     0x4               main.o
_current_screen     0x4               main.o
_screen_height      0x4               screen.o
_capslock_status    0x4               main.o
_KernelArgs         0x10              main.o
_contextFS          0x4               x86cont.o
_Irq5               0x4               main.o
_contextDS          0x4               x86cont.o
_Irq13              0x4               main.o
_kgws_mouse_event_saved_mouse_y
                    0x4               kgws.o
_cwArg2             0x4               gde_serv.o
_Irq2               0x4               main.o
_virtualconsoleList
                    0x30              main.o
_pcideviceList      0x80              main.o
_memorysizeAvailablePhysicalMemory
                    0x4               main.o
_fullscreen_window  0x4               main.o
_contextESI         0x4               x86cont.o
_xxx_gdt            0x100             main.o
_g_navigationbar_height
                    0x4               main.o
_keyboard_message_head
                    0x4               main.o
_LARGE_kernel_base  0x4               main.o
_textcursorStatus   0x4               main.o
_pmiMemoryInfo      0x4               main.o
____yyy             0x4               xproc.o
_kgws_mouse_event_drag_status
                    0x4               kgws.o
_mm_used_heappool   0x4               main.o
_current_stdin      0x4               main.o
_SavedRect          0x4               main.o
_current_volume_string
                    0x4               main.o
_mouse_button_action
                    0x4               main.o
_Irq15              0x4               main.o
_g_module_fs_initialized
                    0x4               main.o
_bmp_change_color_flag
                    0x4               main.o
_framepoolBackBuffer4
                    0x4               main.o
_idleprocessorList  0x80              main.o
_g_driver_hdd_initialized
                    0x4               main.o
_g9x16fontAddress   0x4               main.o
_storage            0x4               main.o
_systemzoneStart    0x4               main.o
_waiting_procs      0x4               main.o
_kgws_mouse_event_button_action
                    0x4               kgws.o
_running_tasks      0x4               main.o
_g_extraheap1_size  0x4               main.o
_pciListOffset      0x4               pci.o
_g_device_screen_width
                    0x4               main.o
_InitThread         0x4               main.o
___breaker_com2_initialized
                    0x4               main.o
_extra              0x4               main.o
_cwArg11            0x4               gde_serv.o
_g_profiler_ints_irq2
                    0x4               main.o
_fsbFrames          0x1000            main.o
_CurrentTTY         0x4               main.o
_g_user_space_framepool_index
                    0x4               main.o
_Initialization     0x18              main.o
_next_thread        0x4               main.o
_GUI_CONFIG         0x3c              main.o
_systemzoneSize     0x4               main.o
___breaker_timer_initialized
                    0x4               main.o
_ps2_button_pressed
                    0x4               ps2mouse.o
_rtcError           0x4               rtc.o
_zorderCounter      0x4               main.o
_mmFramesSuperBlockTotalUsed
                    0x4               main.o
_quantum            0x4               main.o
_stderr             0x4               main.o
_g_mainwindow_width
                    0x4               main.o
_cur_process        0x4               main.o
_current_vc         0x4               main.o
_rtcTicks           0x4               rtc.o
_g_logged           0x4               main.o
_file_TaskMan       0x4               main.o
_RGBA               0x4               main.o
_desktop0           0x4               main.o
_processNewPID      0x4               process.o
___frontbuffer_pa   0x4               video.o
_SMALL_heappool_address
                    0x4               main.o
_cwArg8             0x4               gde_serv.o
_____whatchdog_ps2_keyboard
                    0x4               main.o
_current_dev        0x4               ata.o
___breaker_com3_initialized
                    0x4               main.o
_nicList            0x20              main.o
_____IDLE           0x4               main.o
_gui                0x4               main.o
_CurrentUserSession
                    0x4               main.o
_g_device_screen_height
                    0x4               main.o
_g_mousepointer_height
                    0x4               main.o
_MEDIUM_kernel_base
                    0x4               main.o
_g_module_uem_initialized
                    0x4               main.o
_processor          0x4               main.o
_userList           0x40              main.o
_prompt_pos         0x4               main.o
_saved_mouse_x      0x4               main.o
_cwArg3             0x4               gde_serv.o
_Irq10              0x4               main.o
_Conductor          0x4               main.o
_SMALL_frontbuffer_address
                    0x4               main.o
_ide_handler_address
                    0x4               main.o
_Process            0x4               main.o
_mbr                0x4               main.o
_LARGE_vga_address  0x4               main.o
_current_mmblock    0x4               main.o
_deviceList         0x80              main.o
___spinlock_ipc     0x4               main.o
_ASpace             0x4               main.o
_objects_um         0xf4f4            main.o
_mmFramesSuperBlockSize
                    0x4               main.o
_kernel_stack_start
                    0x4               main.o
_Rtc                0x4               main.o
_blSavedDiskNumber  0x4               main.o
_mm_used_extraheap3
                    0x4               main.o
_caller_process_id  0x4               process.o
_start_new_task_address
                    0x4               main.o
_g_module_gui_initialized
                    0x4               main.o
_file_Init          0x4               main.o
_KeInitPhase        0x4               main.o
_tty_table          0x10              tty.o
_windows_count      0x4               main.o
_timerColor         0x4               pit.o
_pagetableList      0x1000            main.o
_combobox_window    0x4               main.o
_framepoolBackBuffer1
                    0x4               main.o
_g_driver_video_initialized
                    0x4               main.o
_active_window      0x4               main.o
_vtList             0x80              main.o
_objects_km         0xf4f4            main.o
_root               0x4               main.o
_vfs                0x4               main.o
_current_pci_device
                    0x4               main.o
_file_InitTXT       0x4               main.o
_g_show_text_cursor
                    0x4               main.o
_Hardware           0x4               main.o
_kgws_mouse_event_saved_mouse_x
                    0x4               kgws.o
_g_profiler_ints_irq10
                    0x4               main.o
_mm_prev_pointer    0x4               memory.o
_cwArg9             0x4               gde_serv.o
_current_process    0x4               main.o
_appIconBuffer      0x4               main.o
_current_desktop    0x4               main.o
_picError           0x4               pic.o
_Cursor             0x4               main.o
_numlock_status     0x4               main.o
_usession0          0x4               main.o
_g_extraheap2_size  0x4               main.o
_videoError         0x4               video.o
_TaskBar            0x4               main.o
_CurrentSocket      0x4               main.o
_g_module_logoff_initialized
                    0x4               main.o
_pagetableCurrent   0x4               main.o
_timerTextCursorStatus
                    0x4               pit.o
_____boot____disk   0x4               main.o
_g8x14fontAddress   0x4               main.o
_Irq12              0x4               main.o
_g_profiler_ints_irq1
                    0x4               main.o
_LARGE_extraheap2_address
                    0x4               main.o
_timerStatus        0x4               pit.o
_mainButton1        0x4               main.o
_g_profiler_ints_irq7
                    0x4               main.o
_scStatus           0x4               main.o
_stdin              0x4               main.o
_g_frontbuffer_pa   0x4               main.o
_old_mouse_buttom_1
                    0x4               main.o
_mmFramesSuperBlockTotalFree
                    0x4               main.o
_gcharWidth         0x4               main.o
_logonMenu          0x4               main.o
_gTaskmanPageDirectoryAddress
                    0x4               main.o
_savedmouseoverwindowY
                    0x4               main.o
_file_BootLoader    0x4               main.o
_socketList         0x80              main.o
___breaker_com1_initialized
                    0x4               main.o
_g_module_logon_initialized
                    0x4               main.o
_MEDIUM_kernel_address
                    0x4               main.o
_CurrentTTYBUFFER   0x4               main.o
_client_stderr      0x4               main.o
_next_address       0x4               main.o
_destroy_window     0x4               main.o
_____whatchdog_ps2_mouse
                    0x4               main.o
_dispatcherQueueIndex
                    0x4               main.o
_fileIconBuffer     0x4               main.o
_room0              0x4               main.o
_kernel_heap_start  0x4               main.o
_kgwm_wm_status     0x4               kgwm.o
_g_profiler_ints_irq11
                    0x4               main.o
_g8x16fontAddress   0x4               main.o
_g_current_object   0x4               main.o
_PrideColorScheme   0x4               main.o
_current_room       0x4               main.o
_mac_address        0x4               main.o
_SMALL_kernel_address
                    0x4               main.o
_queue              0x4               main.o
_UPProcessorBlock   0x34              main.o
_kgws_mouse_event_mouse_y
                    0x4               kgws.o
_SMALL_pagedpool_address
                    0x4               main.o
_system_disk        0x4               main.o
_DispatchCountBlock
                    0x4               main.o
_current_dead_process
                    0x4               main.o
_cwArg10            0x4               gde_serv.o
_shift_status       0x4               main.o
_ide_dma_prdt       0x20              main.o
_current_directory  0x4               main.o
_xxxClonedProcess   0x4               main.o
_SMALL_extraheap3_address
                    0x4               main.o
_vfs_handle_list    0x800             main.o
_sys_time_ms        0x4               main.o
_kernel_stack_start_pa
                    0x4               main.o
_rect               0x4               main.o
_SMALL_extraheap2_address
                    0x4               main.o
_partition_chars    0x4               main.o
_logonStatus        0x4               main.o
_kgws_mouse_event_mouse_x
                    0x4               kgws.o
___breaker_ps2mouse_initialized
                    0x4               main.o
_kgwm_wm_PID        0x4               kgwm.o
___breaker_ata2_initialized
                    0x4               main.o
_framepoolFrontBuffer3
                    0x4               main.o
_current_window     0x4               main.o
_terminalIconBuffer
                    0x4               main.o
_g_available_heap   0x4               main.o
_start_new_task_id  0x4               main.o
_process_Conductor2
                    0x4               main.o
_g_heap_count       0x4               main.o
_alt_status         0x4               main.o
_schedulerType      0x4               main.o
_current_disk       0x4               main.o
_volume1_rootdir    0x4               main.o
_g_new_message      0x4               main.o
_pwd_initialized    0x4               main.o
_MEDIUM_vga_address
                    0x4               main.o
_blSavedHeads       0x4               main.o
_LARGE_frontbuffer_address
                    0x4               main.o
_Firmware           0x4               main.o
_volume_bootpartition
                    0x4               main.o
_connectionList     0x80              main.o
_file_BootManager   0x4               main.o
_current_dead_thread
                    0x4               main.o
_current_keyboard_responder
                    0x4               main.o
_system_message_write
                    0x4               main.o
____xxx             0x4               xproc.o
_semaforo_priority  0x4               main.o
_mouseover_window   0x4               main.o
_kbMsgStatus        0x4               main.o
_g_module_objectmanager_initialized
                    0x4               main.o
_ata_record_channel
                    0x1               main.o
_zorderTopWindow    0x4               main.o
_list               0x10000           write.o
_gKernelPageDirectoryAddress
                    0x4               main.o
_g_current_framepool
                    0x4               main.o
_current_taskman_server
                    0x4               main.o
_picStatus          0x4               pic.o
_DefaultUser        0x4               main.o
_task_color         0x4               main.o
_g_profiler_ints_irq4
                    0x4               main.o
_framepoolFrontBuffer1
                    0x4               main.o
_contextEIP         0x4               x86cont.o
_heapCount          0x4               main.o
_windowzoneEnd      0x4               main.o
_g_pagedpool_va     0x4               main.o
_current_stderr     0x4               main.o
_current_mouse_responder
                    0x4               main.o
_g_profiler_ints_irq14
                    0x4               main.o
_pagedirectoryIdleProcess
                    0x4               main.o
_client_stdio       0x4               main.o
_volume_vfs         0x4               main.o
_SATAFlag           0x4               ahci.o
_g_mousepointer_x   0x4               main.o
_terminal_count     0x4               main.o
_usersession_start  0x4               main.o
_profiler_percentage_idle_thread
                    0x4               main.o
_processors_count   0x4               main.o
_CurrentProcedure   0x4               main.o
_mmFramesSuperBlockTotal
                    0x4               main.o
_SMALL_vga_address  0x4               main.o
_periodic_procs     0x4               main.o
_g_inputmode        0x4               main.o
_SMALL_kernel_base  0x4               main.o
_keyboard_handler_address
                    0x4               main.o
_MEDIUM_extraheap2_address
                    0x4               main.o
_kernel_stack_end   0x4               main.o
_file_Kernel        0x4               main.o
_current_tss        0x4               main.o
_g_extraheap2_va    0x4               main.o
_g_object_manager_status
                    0x4               main.o
_cwFlag             0x4               gde_serv.o
_InitProcess        0x4               main.o
_system_volume      0x4               main.o
_microkernelStatus  0x4               main.o
_zones              0x4               main.o
_lineBuffer         0x4               main.o
_miMemoryInfo       0x4               main.o
_SMALL_extraheap1_address
                    0x4               main.o
_g_module_runtime_initialized
                    0x4               main.o
_screen_width       0x4               screen.o
_ioControl_keyboard
                    0x4               main.o
_pci_supported      0x4               pci.o
_file_LA            0x4               main.o
_FT                 0x24              main.o
_VersionInfo        0x4               main.o
_inode_list         0x800             main.o
_processorList      0x80              main.o
_nic_idt_entry_new_address
                    0x4               nicintel.o
_file_CFE           0x4               main.o
_system_procs       0x4               main.o
_window_with_focus  0x4               main.o
_g_proc_status      0x4               main.o
_framepoolCurrent   0x4               main.o
_desktopList        0x40              main.o
_gNextKeyboardMessage
                    0x4               main.o
_pagedirectoryShared
                    0x4               main.o
___cga_va           0x4               video.o
_g_heappool_va      0x4               main.o
_g_current_ide_channel
                    0x4               main.o
_current_display    0x4               main.o
_g_spc              0x4               main.o
_cwArg12            0x4               gde_serv.o
_Signal             0x4               signal.o
_xxxxcrazy_stuff    0x1               main.o
_pagedirectoryCurrent
                    0x4               main.o
_gLogonPID          0x4               main.o
___frontbuffer_va   0x4               video.o
_VECTORS            0x400             main.o
_CurrentWindow      0x4               main.o
_g_product_type     0x4               main.o
_vbr                0x4               main.o
_Irq14              0x4               main.o
_profiler_ticks_count
                    0x4               main.o
_g_heap_pointer     0x4               main.o
_LineShell          0x4               main.o
_ipcStatus          0x4               ipc.o
_WindowWithFocus    0x4               main.o
_task_count         0x4               main.o
_Screen             0x4               main.o
_pipe_gramadocore_init_execve
                    0x4               main.o
_channelList        0x80              main.o
_g_kernel_nonpaged_memory
                    0x4               main.o
_timer_handler_address
                    0x4               main.o
_kernel_switch      0x4               main.o
_old_mouse_buttom_3
                    0x4               main.o
_guiStatus          0x4               main.o
_window_rootConductor
                    0x4               main.o
_terminalLineMax    0x4               main.o
_heapList           0x20              main.o
_cwArg5             0x4               gde_serv.o
_ttyCurrentX        0x4               main.o
_volume2_rootdir    0x4               main.o
_CurrentDesktop     0x4               main.o
_DriveContext       0x4               main.o
_prompt_err         0x100             main.o
_abnt2              0x4               main.o
_gFocusBlocked      0x4               main.o
_current_socket     0x4               main.o
_LARGE_backbuffer_address
                    0x4               main.o
_sata_handler_address
                    0x4               main.o
_desktops_count     0x4               main.o
_KernelPages        0x4               main.o
_directory_entry_list
                    0x800             main.o
_g_driver_apic_initialized
                    0x4               main.o
_LARGE_pagedpool_address
                    0x4               main.o
_FREE_FRAMES        0x6000            main.o
__lockfocus         0x4               main.o
_file_download      0x4               main.o
_saved_mouse_y      0x4               main.o
_contextGS          0x4               x86cont.o
_current_usersession
                    0x4               main.o
_g_video_mode       0x4               main.o
_ttyCurrentY        0x4               main.o
_fat                0x4               main.o
_ps2_mouse_has_wheel
                    0x4               ps2mouse.o
_kgws_last_totalticks
                    0x4               kgws.o
_mm_used_pagedpool  0x4               main.o
_stdio_verbosemode_flag
                    0x4               main.o
_file_bin           0x4               main.o
_mmFramesSuperBlockEnd
                    0x4               main.o
_processList        0x1000            main.o
_memorysizeAvailableVirtualMemory
                    0x4               main.o
_memorysizeExtendedMemory
                    0x4               main.o
_Irq8               0x4               main.o
_lineLine           0x4               main.o
_gPagedPollStart    0x4               main.o
_roomList           0x40              main.o
_g_backbuffer_pa    0x4               main.o
_systemzone         0x4               main.o
_keyboard_message_tail
                    0x4               main.o
_dead_thread_collector_status
                    0x4               main.o
_ata_pci            0x4               main.o
_ATAFlag            0x4               main.o
_sys_time_hz        0x4               main.o
_gLogoffPID         0x4               main.o
_profiler_ticks_limit
                    0x4               main.o
_gfontSize          0x4               main.o
_start_new_task_status
                    0x4               main.o
_CurrentProcess     0x4               main.o
_framepoolFrontBuffer4
                    0x4               main.o
_current_semaphore  0x4               main.o
_thread_failed_flag
                    0x4               x86fault.o
_gramado_ports      0x80              main.o
___cga_pa           0x4               video.o
_realtimeprocessorList
                    0x80              main.o
_timer_cursor_used  0x4               main.o
_CurrentTTYLDISC    0x4               main.o
_clientCP           0x4               main.o
_profiler_percentage_all_normal_threads
                    0x4               main.o
_cwArg7             0x4               gde_serv.o
_SWAPPED_FRAMES     0x6000            main.o
_g_total_physical_memory
                    0x4               main.o
_SMALL_backbuffer_address
                    0x4               main.o
_g_mousepointer_width
                    0x4               main.o
_HANDLERS           0x420             main.o
_current_terminal   0x4               main.o
_line_stderr        0x4               main.o
_ps2_mouse_status   0x4               ps2mouse.o
_lineOffset         0x4               main.o
_window_Conductor2  0x4               main.o
_g_machine_type     0x4               main.o
_contextEFLAGS      0x4               x86cont.o
_current_tty        0x4               main.o
_client_stdout      0x4               main.o
_eventStatus        0x4               main.o
_Irq11              0x4               main.o
_MEDIUM_frontbuffer_address
                    0x4               main.o
_current_stdout     0x4               main.o
_modulesStatus      0x4               modules.o
_ipcBuffer          0x4               main.o
_newtask_EIP        0x4               main.o
_zzzzdummy          0x4               output.o
_g_profiler_ints_irq5
                    0x4               main.o
_memorysizeTotalVirtualMemory
                    0x4               main.o
_top_window         0x4               main.o
_flagRefreshMouseOver
                    0x4               kgws.o
_menuitemDefault    0x4               main.o
_hddError           0x4               hdd.o
_g_scheduler_status
                    0x4               main.o
_FULLSCREEN_TABWINDOW
                    0x4               main.o
_LARGE_extraheap1_address
                    0x4               main.o
_quit_message       0x4               main.o
_network_status     0x4               network.o
_TaskManProcess     0x4               main.o
_LineHead           0x4               main.o
_LARGE_user_address
                    0x4               main.o
_ide_ports          0x60              main.o
_SystemUser         0x4               main.o
_MEDIUM_pagedpool_address
                    0x4               main.o
_mm_used_backbuffer
                    0x4               main.o
_kgws_ws_PID        0x4               kgws.o
_current_quantum    0x4               main.o
_stdout             0x4               main.o
_dead_thread_collector_flag
                    0x4               main.o
_activeprocessorList
                    0x80              main.o
_windowzoneSize     0x4               main.o
_g_driver_rtc_initialized
                    0x4               main.o
_SystemClasses      0xc               main.o
_kgws_mouse_event_old_mouse_buttom_3
                    0x4               kgws.o
_mm_used_frame_table
                    0x4               main.o
_objects_gui        0xf4f4            main.o
_kgws_mouse_event_mouse_buttom_3
                    0x4               kgws.o
_CurrentTTYDRV      0x4               main.o
_g_navigationbar_width
                    0x4               main.o
_timerIdleState     0x4               pit.o
_gws_currentfont_address
                    0x4               main.o
_windowList         0x1000            main.o
_gPagedPollEnd      0x4               main.o
_windowzone         0x4               main.o
_ttyList            0x400             main.o
_file_CS            0x4               main.o
_memorysizeFree     0x4               main.o
_contextECX         0x4               x86cont.o
_Irq6               0x4               main.o
_timerError         0x4               pit.o
_gInitPageDirectoryAddress
                    0x4               main.o
_IDE                0x14              main.o
_g_system_color     0x4               main.o
_Irq3               0x4               main.o
_realtimeStatus     0x4               main.o
_editbox_window     0x4               main.o
_kernel_request     0x4               main.o
_g_pageable_framepool_index_max
                    0x4               main.o
_current_thread     0x4               main.o
_blSavedMetafileAddress
                    0x4               main.o
_Pipes              0x20              main.o
_processorsList     0x80              main.o
_fsStatus           0x4               wm.o
_Bank               0x4               main.o
_fileBuffer         0x4               main.o
_timer_cursor_status
                    0x4               main.o
_g_current_vm       0x4               main.o
_rectClientArea     0x4               main.o
_g_extraheap3_va    0x4               main.o
_file_Shell         0x4               main.o
_current_target_dir
                    0x2c              main.o
_contextEBP         0x4               x86cont.o
_xxxx_nothingxxxx   0x4               install.o
_mm_used_kernel_area
                    0x4               main.o
_schedulerQueue     0x10              main.o
_systemSize         0x4               main.o
_SMALL_user_address
                    0x4               main.o
_gDeveloperOptions  0x4               main.o
_g_profiler_ints_irq12
                    0x4               main.o
_keybuffer          0x80              main.o
_zorder             0x4               main.o
_mm_used_extraheap2
                    0x4               main.o
_keyboard_queue     0x120             main.o
_last_size          0x4               memory.o
_forkid             0x4               main.o
_menus_count        0x4               main.o
_current_volume     0x4               main.o
_shutdown_address   0x4               main.o
_devices            0x4               main.o
_ioControl          0x80              main.o
_terminalLine       0x4               main.o
_serialportError    0x4               main.o
_mountedList        0x200             main.o
_gcharHeight        0x4               main.o
_g_use_default_user
                    0x4               main.o
_g_profiler_ints_irq8
                    0x4               main.o
_mouse_buttom_1     0x4               main.o
_RING0IDLEThread    0x4               main.o
_lock_taskswitch    0x4               ts.o
_g_profiler_ints_irq3
                    0x4               main.o
_framepoolFrontBuffer2
                    0x4               main.o
_pipe_execve        0x4               main.o
_diskList           0x1000            main.o
_server_stderr      0x4               main.o
_ready_queue_dev    0x4               ata.o
_Conductor2         0x4               main.o
___breaker_ata1_initialized
                    0x4               main.o
_KernelClasses      0x4               main.o
_last_valid         0x4               memory.o
_fsbFreeFrames      0x1000            main.o
_old_mouse_buttom_2
                    0x4               main.o
_screenBuffers      0x4               main.o
_current_process_pagedirectory_address
                    0x4               main.o
_rr_procs           0x4               main.o
_KernelProcess      0x4               main.o
_framepoolPageableSpace
                    0x4               main.o
_save_client_rect_left
                    0x4               wm.o
_lineLineMax        0x4               main.o
_KernelHeapSize     0x4               main.o
_xxx_gdt_ptr        0x6               main.o
_HostDeviceInfo     0x4               main.o
_prompt_out         0x100             main.o
_demand_paging_flag
                    0x4               x86fault.o
_bmp_selected_color
                    0x4               main.o
_g_driver_pci_initialized
                    0x4               main.o
_file_cluster_list  0x800             main.o
_g_profiler_ints_gde_services
                    0x4               main.o
___breaker_rtc_initialized
                    0x4               main.o
_jiffies            0x4               main.o
_escape_status      0x4               main.o
_LARGE_heappool_address
                    0x4               main.o
_memorysizeOtherMemory
                    0x4               main.o
_mmblockList        0x8000            main.o
_kgws_status        0x4               kgws.o
_g_driver_timer_initialized
                    0x4               main.o
_blSavedSPT         0x4               main.o
_cwArg4             0x4               gde_serv.o
_ClonedThread       0x4               main.o
_HostInfo           0x4               main.o
_ata_identify_dev_buf
                    0x4               main.o
_Irq0               0x4               main.o
_file_dd            0x4               main.o
_DSpace             0x4               main.o
_blSavedLastValidAddress
                    0x4               main.o
_g_next_app         0x4               main.o
_timerList          0x80              main.o
_network__stream    0x4               network.o
_file_libs          0x4               main.o
_kgws_mouse_event_button_pressed
                    0x4               kgws.o
_idle_proc          0x4               main.o
_clientCR           0x4               main.o
_g_useGUI           0x4               main.o
_kgws_delta_totalticks
                    0x4               kgws.o
_g_filesystem_type  0x4               main.o
_Irq4               0x4               main.o
_dirCount           0x4               main.o
_ShellProcess       0x4               main.o
_CurrentFileAccess  0x4               main.o
_keybuffer_head     0x4               main.o
_contextCS          0x4               x86cont.o
_kgws_current_totalticks
                    0x4               kgws.o
_CurrentBuffer      0x4               main.o
_CurrentColorScheme
                    0x4               main.o
_next_quantum       0x4               main.o
_process_rootConductor
                    0x4               main.o
_dev_nport          0x20              main.o
_stdio_terminalmode_flag
                    0x4               main.o
_menuDefault        0x4               main.o
_framepoolSmallSystemUserSpace
                    0x4               main.o
_memorysizeTotalPhysicalMemory
                    0x4               main.o
_ata                0x18              main.o
_rtcStatus          0x4               rtc.o
_rootConductor      0x4               main.o
_gSystemStatus      0x4               main.o
_DeveloperWindowCursor
                    0x4               main.o
_fatal_error_flag   0x4               x86fault.o
_videoStatus        0x4               video.o
_tab_status         0x4               main.o
_Version            0x4               main.o
_file_pwd           0x4               main.o
_REQUEST            0x34              main.o
_userenvironmentStatus
                    0x4               main.o
_g_guiMinimal       0x4               main.o
_time_out           0x4               main.o
_current_file       0x4               main.o
_pagedirectoryKernelProcess
                    0x4               main.o
_g_mainwindow_height
                    0x4               main.o
_VideoBlock         0x1c              main.o
_System             0x4               main.o
_KernelSize         0x4               main.o
_Line               0x4               main.o
_dispatcherReadyList
                    0x28              main.o
_ScreenInfo         0x4               main.o
_CurrentCursor      0x4               main.o
_g_profiler_ints_irq0
                    0x4               main.o
_g8x8fontAddress    0x4               main.o
_KernelStackSize    0x4               main.o
_save_client_rect_height
                    0x4               wm.o
_memorysizeInstalledPhysicalMemory
                    0x4               main.o
_keybuffer_index    0x4               main.o
_memorysizeTotal    0x4               main.o
_pageAllocList      0x1000            main.o
_g_system_mode      0x4               main.o
_Irq1               0x4               main.o
_g_current_video_mode
                    0x4               main.o
_g_heap_count_max   0x4               main.o
_ESCAPE_E0          0x4               main.o
_current_group      0x4               main.o
_process_Conductor  0x4               main.o
_BackBufferInfo     0x4               main.o
_file_users         0x4               main.o
_conductorIndex     0x4               main.o
_cwArg6             0x4               gde_serv.o
_g_mousepointer_y   0x4               main.o
_g_framepool_max    0x4               main.o
_task_waiting       0x4               main.o
_keybuffer_tail     0x4               main.o
_mm_used_user_area  0x4               main.o
___breaker_com4_initialized
                    0x4               main.o
_QUEUES             0xc               main.o
_volume_systempartition
                    0x4               main.o
_nic_idt_entry_new_number
                    0x1               nicintel.o
_Irq7               0x4               main.o
_banksCount         0x4               main.o
_Pic                0x4               main.o
_Platform           0x4               main.o
_g_profiler_ints_irq15
                    0x4               main.o
_system_message_read
                    0x4               main.o
_fileList           0x80              main.o
_contextEAX         0x4               x86cont.o
_errno              0x4               main.o
_old                0x4               main.o
_g_heap_size        0x4               main.o
_contextEBX         0x4               x86cont.o
_LARGE_extraheap3_address
                    0x4               main.o
_gSystemEdition     0x4               main.o
_pagedirectoryList  0x1000            main.o
_framepoolMediumSystemUserSpace
                    0x4               main.o
_ps2_mouse_moving   0x4               ps2mouse.o
_mm_used_lfb        0x4               main.o
_menubarDefault     0x4               main.o
_logoffStatus       0x4               main.o
_current_user       0x4               main.o
_WindowProcedure    0x4               main.o
_framepoolKernelSpace
                    0x4               main.o
_memorysizeBaseMemory
                    0x4               main.o
_g_current_ide_device
                    0x4               main.o
_kgws_mouse_event_mouse_buttom_1
                    0x4               kgws.o
_rooms_count        0x4               main.o
_key_status         0x4               main.o
_kgws_mouse_event_moving
                    0x4               kgws.o
_server_stdout      0x4               main.o
_contextEDI         0x4               x86cont.o
_timerLock          0x4               pit.o
_currentNIC         0x4               main.o
___breaker_ps2keyboard_initialized
                    0x4               main.o
_mmblockCount       0x4               main.o
_prompt_status      0x4               main.o
_pagedirectoryTaskmanProcess
                    0x4               main.o
_ambiente           0x4               main.o
_ps2_mouse_drag_status
                    0x4               ps2mouse.o
_framepoolLargeSystemUserSpace
                    0x4               main.o
_g_platform_type    0x4               main.o
_folderIconBuffer   0x4               main.o
_kgwm_status        0x4               kgwm.o
_line_stdin         0x4               main.o
_g_kernel_paged_memory
                    0x4               main.o
_mmFramesSuperBlockStart
                    0x4               main.o
_mouseBMPBuffer     0x4               main.o
_contextES          0x4               x86cont.o
_g_driver_keyboard_initialized
                    0x4               main.o
_rtc                0x4               main.o
_bmp_substitute_color
                    0x4               main.o
_window_Conductor   0x4               main.o
_lastBank           0x4               main.o
_TTY                0x6c0             main.o
_e1000_interrupt_flag
                    0x4               main.o
_hddStatus          0x4               hdd.o
_g_mm_system_type   0x4               main.o
_g_kernel_lfb       0x4               main.o
_PciDrivers         0x4               main.o
_system_message_queue
                    0x80              main.o
_terminal_window    0x4               main.o
_mainButton2        0x4               main.o
_CurrentScreen      0x4               main.o
_g_extraheap1_va    0x4               main.o
_notification_status
                    0x4               network.o
_g_profiler_ints_irq6
                    0x4               main.o
_save_client_rect_width
                    0x4               wm.o
_ttyLineCounter     0x4               main.o
_g_char_attrib      0x4               main.o
_current_arch       0x4               main.o
_HumilityColorScheme
                    0x4               main.o
_memorysizeUsed     0x4               main.o
_window_mouse_over  0x4               main.o
_file_tmp           0x4               main.o
_ctrl_status        0x4               main.o
_e1000_irq_count    0x4               main.o
_g_module_shell_initialized
                    0x4               main.o
_g_next_proc        0x4               main.o
_semaphoreList      0x84              main.o
_file_CWE           0x4               main.o
_winkey_status      0x4               main.o
_FrontBufferInfo    0x4               main.o
_g_extraheap3_size  0x4               main.o
_g_current_list     0x4               main.o
_savedmouseoverwindowX
                    0x4               main.o
_line_stdout        0x4               main.o
_g_module_mm_initialized
                    0x4               main.o
_LARGE_kernel_address
                    0x4               main.o
_contextSS          0x4               x86cont.o
_current_workingdiretory_string
                    0x20              main.o
_gShellPageDirectoryAddress
                    0x4               main.o
_volumeList         0x1000            main.o
_TERMINAL           0xc0              main.o
_g_nova_mensagem    0x4               main.o
_MEDIUM_heappool_address
                    0x4               main.o
_current_menu       0x4               main.o
_pmiCurrent         0x4               main.o
_g_profiler_ints_irq9
                    0x4               main.o
_Pci                0x4               main.o
_timerLine          0x4               pit.o
_mouse_buttom_2     0x4               main.o
_CurrentConnection  0x4               main.o
_CurrentUser        0x4               main.o

Memory Configuration

Name             Origin             Length             Attributes
*default*        0x0000000000000000 0xffffffffffffffff

Linker script and memory map


.text           0x00000000c0001000    0x35000
                0x00000000c0001000                _code_begin = .
 *(.head_x86)
 .head_x86      0x00000000c0001000      0x245 boot.o
                0x00000000c0001000                _kernel_begin
                0x00000000c0001219                _SavedBootBlock
                0x00000000c000121d                _SavedLFB
                0x00000000c0001221                _SavedX
                0x00000000c0001225                _SavedY
                0x00000000c0001229                _SavedBPP
                0x00000000c000122d                _SavedLastValidAddress
                0x00000000c0001231                _SavedBootMode
                0x00000000c0001235                _kArg1
                0x00000000c0001239                _kArg2
                0x00000000c000123d                _kArg3
                0x00000000c0001241                _kArg4
 *(.text)
 *fill*         0x00000000c0001245        0xb 
 .text          0x00000000c0001250     0x60d0 boot.o
                0x00000000c0001250                _gdt
                0x00000000c0001288                _end_gdt
                0x00000000c000128c                _GDT_register
                0x00000000c0001292                _idt
                0x00000000c0001a96                _IDT_register
                0x00000000c0001a9c                _KernelStatus
                0x00000000c0001aa0                _task_switch_salva_esp
                0x00000000c0005bd0                _setup_system_interrupt
                0x00000000c0005ea0                _asm_nic_create_new_idt_entry
                0x00000000c0005eba                _do_executa_new_task
                0x00000000c0005f02                _test_cpuid_support
                0x00000000c0005f21                _get_page_dir
                0x00000000c0005f25                _set_page_dir
                0x00000000c0005f29                _get_page_fault_adr
                0x00000000c0005f2d                __die
                0x00000000c0005f31                _halt
                0x00000000c0005f33                _idle_halt_cpu
                0x00000000c0005f37                _refresh_tlb
                0x00000000c0005f40                _arch_pause
                0x00000000c0005f43                _interrupts_enable
                0x00000000c0005f45                _interrupts_disable
                0x00000000c0005f78                _setup_idt_vector
                0x00000000c0005fb9                _enable_pse
                0x00000000c0005fc5                _asm_shut_down
                0x00000000c0005fc9                _asm_reboot
                0x00000000c0005fd6                _clear_nt_flag
                0x00000000c0005fe8                _irq0
                0x00000000c00060fb                _dispatch_context
                0x00000000c0006169                _timer_test
                0x00000000c000697f                _irq1
                0x00000000c00069ab                _irq3
                0x00000000c00069b4                _irq4
                0x00000000c00069bd                _irq7
                0x00000000c00069d2                _irq8
                0x00000000c00069e2                _irq9
                0x00000000c00069ed                _irq10
                0x00000000c00069f8                _nic_handler
                0x00000000c0006a08                _irq11
                0x00000000c0006a13                _irq12
                0x00000000c0006a39                _irq13
                0x00000000c0006a46                _irq14
                0x00000000c0006a60                _irq15
                0x00000000c0006a8d                _fault_N0
                0x00000000c0006a9c                _fault_N1
                0x00000000c0006aab                _fault_N2
                0x00000000c0006aba                _fault_N3
                0x00000000c0006ac9                _fault_N4
                0x00000000c0006ad8                _fault_N5
                0x00000000c0006ae7                _fault_INTRUCAO_INVALIDA
                0x00000000c0006af6                _fault_N7
                0x00000000c0006b05                _fault_DOUBLE
                0x00000000c0006b14                _fault_N9
                0x00000000c0006b23                _fault_N10
                0x00000000c0006b32                _fault_N11
                0x00000000c0006b41                _fault_STACK
                0x00000000c0006b50                _fault_GP
                0x00000000c0006b5f                _fault_N14
                0x00000000c0006b6e                _fault_N15
                0x00000000c0006b7d                _fault_N16
                0x00000000c0006b8c                _fault_N17
                0x00000000c0006b9b                _fault_N18
                0x00000000c0006baa                _fault_N19
                0x00000000c0006bb9                _fault_N20
                0x00000000c0006bc8                _fault_N21
                0x00000000c0006bd4                _fault_N22
                0x00000000c0006be0                _fault_N23
                0x00000000c0006bec                _fault_N24
                0x00000000c0006bf8                _fault_N25
                0x00000000c0006c04                _fault_N26
                0x00000000c0006c10                _fault_N27
                0x00000000c0006c1c                _fault_N28
                0x00000000c0006c28                _fault_N29
                0x00000000c0006c34                _fault_N30
                0x00000000c0006c40                _fault_N31
                0x00000000c0006cdd                _hd_buffer
                0x00000000c0006ce1                _hd_lba
                0x00000000c0006ce5                _turn_task_switch_on
                0x00000000c0006d00                _turn_task_switch_off
                0x00000000c0006d1b                _os_read_sector
                0x00000000c0006d34                _os_write_sector
                0x00000000c0006e51                _reset_ide0
                0x00000000c0006ec2                _hour
                0x00000000c0006ec3                _minute
                0x00000000c0006ec4                _second
                0x00000000c0006ec5                _CMOS_GET_DATE
                0x00000000c0006f21                _int48
                0x00000000c0006f24                _int49
                0x00000000c0006f27                _int50
                0x00000000c0006f2a                _int51
                0x00000000c0006f2d                _int52
                0x00000000c0006f30                _int53
                0x00000000c0006f33                _int54
                0x00000000c0006f36                _int100
                0x00000000c0006f39                _int133
                0x00000000c0007065                _int128
                0x00000000c0007091                _int129
                0x00000000c00070cc                _int201
                0x00000000c00070cf                _int213
                0x00000000c00070d2                _int216
                0x00000000c0007198                _um_buffer_putpixel
                0x00000000c000719c                _swlib_backbuffer_putpixel
                0x00000000c000719e                _swlib_lfb_putpixel
                0x00000000c00071a3                _gui_buffer_putpixel
                0x00000000c000722d                _gui_buffer_putpixel2
                0x00000000c00072b7                _background
                0x00000000c00072fe                _asm_refresh_screen
 .text          0x00000000c0007320      0x29c main.o
                0x00000000c0007320                _kernel_main
 .text          0x00000000c00075bc      0x6d2 x86main.o
                0x00000000c00075c8                _x86mainStartFirstThread
                0x00000000c00077da                ___x86StartInit
                0x00000000c000793f                _x86main
 .text          0x00000000c0007c8e      0xc66 socket.o
                0x00000000c0007c8e                _sys_socket
                0x00000000c0007ebd                _socket_ioctl
                0x00000000c0007f29                _sys_connect
                0x00000000c00081ad                _sys_accept_sender
                0x00000000c0008215                _sys_accept
                0x00000000c0008338                _sys_bind
                0x00000000c00084ca                _sys_getsockname
                0x00000000c0008664                _sys_listen
                0x00000000c0008686                _create_socket
                0x00000000c00086de                _getSocketIP
                0x00000000c00086f6                _getSocketPort
                0x00000000c0008712                _update_socket
                0x00000000c0008747                _socket_read
                0x00000000c0008802                _socket_write
                0x00000000c00088bd                _socket_set_gramado_port
 .text          0x00000000c00088f4        0x0 ctype.o
 .text          0x00000000c00088f4     0x14ab kstdio.o
                0x00000000c00088f4                _fclose
                0x00000000c0008974                _fopen
                0x00000000c0008b15                ___openat
                0x00000000c0008b48                _fread
                0x00000000c0008c40                _fwrite
                0x00000000c0008cc3                ___do_fflush
                0x00000000c0008d12                _fflush
                0x00000000c0008da0                _update_standard_stream
                0x00000000c0008e21                _prints
                0x00000000c0008ef4                _printi
                0x00000000c0008fed                _print
                0x00000000c00091e2                _printf
                0x00000000c00091ff                _puts
                0x00000000c000921a                _sprintf
                0x00000000c0009239                _fprintf
                0x00000000c00092d8                _fputs
                0x00000000c0009353                _ungetc
                0x00000000c000938d                _ftell
                0x00000000c00093af                _fileno
                0x00000000c00093c9                _fgetc
                0x00000000c0009450                _feof
                0x00000000c000948f                _ferror
                0x00000000c00094ac                _fseek
                0x00000000c000953c                _fputc
                0x00000000c00095b2                _fscanf
                0x00000000c00095dc                _rewind
                0x00000000c00095f8                _printchar
                0x00000000c0009643                _putchar
                0x00000000c0009662                _input
                0x00000000c00097f2                _stdioInitialize
                0x00000000c0009d1b                _setbuf
                0x00000000c0009d3b                _setbuffer
                0x00000000c0009d64                _setlinebuf
                0x00000000c0009d6d                _setvbuf
 .text          0x00000000c0009d9f       0xf7 stdlib.o
                0x00000000c0009d9f                _rand
                0x00000000c0009dbc                _kmalloc
                0x00000000c0009df8                _kfree
                0x00000000c0009e17                ___ptsname
 .text          0x00000000c0009e96      0x570 string.o
                0x00000000c0009e96                _strcmp
                0x00000000c0009efb                _strncmp
                0x00000000c0009f5e                _str_cmp
                0x00000000c0009fdb                _memcpy
                0x00000000c000a018                _memcpy32
                0x00000000c000a054                _strcpy
                0x00000000c000a088                _strcat
                0x00000000c000a0b7                _bcopy
                0x00000000c000a0e4                _bzero
                0x00000000c000a105                _strlen
                0x00000000c000a133                _memset
                0x00000000c000a17a                _strcspn
                0x00000000c000a219                _strspn
                0x00000000c000a2b8                _strtok_r
                0x00000000c000a39f                _strtok
                0x00000000c000a3b7                _strdup
 .text          0x00000000c000a406      0x19c unistd.o
                0x00000000c000a406                _unistd_file_write
                0x00000000c000a474                _unistd_file_read
                0x00000000c000a4e2                _fpathconf
                0x00000000c000a4ec                _pathconf
                0x00000000c000a4f6                ___gethostname
                0x00000000c000a543                ___sethostname
 .text          0x00000000c000a5a2      0x1fc devmgr.o
                0x00000000c000a5a2                _devmgr_init_device_list
                0x00000000c000a5d0                _devmgr_device_object
                0x00000000c000a658                _devmgr_register_device
                0x00000000c000a793                _init_device_manager
 .text          0x00000000c000a79e     0x1e08 gde_serv.o
                0x00000000c000a79e                _gde_extra_services
                0x00000000c000b544                _gde_services
                0x00000000c000c3ce                _serviceCreateWindow
                0x00000000c000c574                _servicesPutChar
                0x00000000c000c591                _gde_133
 .text          0x00000000c000c5a6      0x19b debug.o
                0x00000000c000c5a6                _debug_check_inicialization
                0x00000000c000c651                _debug_check_drivers
                0x00000000c000c663                _debug_breakpoint
                0x00000000c000c681                _debug_compute_checksum
                0x00000000c000c6b1                _debug
                0x00000000c000c701                _debug_print
 .text          0x00000000c000c741      0xa0a storage.o
                0x00000000c000c741                _diskShowCurrentDiskInfo
                0x00000000c000c771                _diskShowDiskInfo
                0x00000000c000c87c                _disk_show_info
                0x00000000c000c8bd                _disk_get_disk_handle
                0x00000000c000c8e2                _disk_get_current_disk_info
                0x00000000c000c8ec                _disk_init
                0x00000000c000ca60                _init_test_disk
                0x00000000c000ca66                _volumeShowCurrentVolumeInfo
                0x00000000c000ca96                _volumeShowVolumeInfo
                0x00000000c000cb83                _volume_get_volume_handle
                0x00000000c000cba8                _volume_get_current_volume_info
                0x00000000c000cbce                _volume_init
                0x00000000c000ce61                _volume_show_info
                0x00000000c000cea2                _get_ide_disk_info
                0x00000000c000cf51                _show_ideports_info
 .text          0x00000000c000d14b        0x0 install.o
 .text          0x00000000c000d14b       0x3a object.o
                0x00000000c000d14b                _init_object_manager
 .text          0x00000000c000d185       0xf5 runtime.o
                0x00000000c000d185                _init_runtime
                0x00000000c000d220                _KiInitRuntime
 .text          0x00000000c000d27a      0x141 abort.o
                0x00000000c000d27a                _KiAbort
                0x00000000c000d288                _abort
 .text          0x00000000c000d3bb      0x230 info.o
                0x00000000c000d3bb                _KeInformation
                0x00000000c000d3c1                _KiInformation
                0x00000000c000d595                _info_get_boot_info
 .text          0x00000000c000d5eb       0x5c io.o
                0x00000000c000d5eb                _ioServices
                0x00000000c000d635                _ioInit
 .text          0x00000000c000d647        0x0 modules.o
 .text          0x00000000c000d647       0x51 signal.o
                0x00000000c000d647                _signalSend
                0x00000000c000d684                _signalInit
 .text          0x00000000c000d698        0xa sm.o
                0x00000000c000d698                _init_systemserver
 .text          0x00000000c000d6a2      0x7ad init.o
                0x00000000c000d6a2                _save_kernel_args
                0x00000000c000d6a8                _init_architecture_dependent
                0x00000000c000d745                _init_architecture_independent
                0x00000000c000d87a                _init_globals
                0x00000000c000da8b                _init
 .text          0x00000000c000de4f      0xae2 system.o
                0x00000000c000de4f                _set_up_color
                0x00000000c000de5d                _set_up_text_color
                0x00000000c000de89                _set_up_cursor
                0x00000000c000debb                _get_cursor_x
                0x00000000c000ded2                _get_cursor_y
                0x00000000c000dee9                _systemNull
                0x00000000c000def3                _systemLinkDriver
                0x00000000c000df15                _systemShowDevicesInfo
                0x00000000c000dfb1                _systemCreateSystemMenuBar
                0x00000000c000e07c                _systemSetupVersion
                0x00000000c000e140                _system_dispatch_to_procedure
                0x00000000c000e14a                _SystemMenu
                0x00000000c000e2a3                _SystemMenuProcedure
                0x00000000c000e308                _systemReboot
                0x00000000c000e36a                _systemShutdown
                0x00000000c000e38d                _systemShutdownViaAPM
                0x00000000c000e3a6                _systemGetSystemMetric
                0x00000000c000e3f5                _systemGetSystemStatus
                0x00000000c000e428                _die
                0x00000000c000e452                _system_get_pid
                0x00000000c000e495                _systemGetSystemMetrics
                0x00000000c000e722                _newLinkedlist
                0x00000000c000e75d                _newNode
                0x00000000c000e78f                _Removing_from_the_beginning
                0x00000000c000e7b9                _Removing_from_the_middle
                0x00000000c000e7bf                _Removing_from_the_end
                0x00000000c000e7eb                _systemStartUp
                0x00000000c000e8ca                _systemInit
 .text          0x00000000c000e931       0x8e execve.o
                0x00000000c000e931                _sys_execve
                0x00000000c000e94d                _init_executive
 .text          0x00000000c000e9bf       0x15 cpuamd.o
                0x00000000c000e9bf                _get_cpu_amd_parameters
                0x00000000c000e9c5                _init_amd
 .text          0x00000000c000e9d4      0x166 portsx86.o
                0x00000000c000e9d4                _in8
                0x00000000c000e9e9                _in16
                0x00000000c000ea00                _in32
                0x00000000c000ea14                _out8
                0x00000000c000ea2b                _out16
                0x00000000c000ea44                _out32
                0x00000000c000ea51                ___x86_io_delay
                0x00000000c000ea5b                _wait_ns
                0x00000000c000ea8b                _portsx86_IN
                0x00000000c000eadf                _portsx86_OUT
 .text          0x00000000c000eb3a       0x2b syscall.o
                0x00000000c000eb3a                _systemcall
                0x00000000c000eb5b                _jmp_address
 .text          0x00000000c000eb65      0x7b4 x86.o
                0x00000000c000eb71                _enable
                0x00000000c000eb78                _disable
                0x00000000c000eb7f                _farReturn
                0x00000000c000eb86                _intReturn
                0x00000000c000eb8d                _stopCpu
                0x00000000c000eb95                _getFlags
                0x00000000c000eba0                _setFlags
                0x00000000c000ebab                _cpux86_enable_caches
                0x00000000c000ebd5                _setgate
                0x00000000c000ecd0                _unsetgate
                0x00000000c000ed5a                _setregion
                0x00000000c000eddb                _setsegment
                0x00000000c000ef03                _setsegmentNR
                0x00000000c000ef2f                _init_gdt
                0x00000000c000f15b                _init_intel
                0x00000000c000f182                _show_cpu_intel_parameters
                0x00000000c000f2fc                _x86_sse_init
 .text          0x00000000c000f319      0x4e1 detect.o
                0x00000000c000f319                _get_cpu_intel_parameters
                0x00000000c000f65c                _cpu_get_parameters
                0x00000000c000f669                _KeTestCPU
                0x00000000c000f67b                _hal_probe_cpu
                0x00000000c000f732                _hal_probe_processor_type
 .text          0x00000000c000f7fa      0x6c2 hal.o
                0x00000000c000f7fa                _hal_default_handler
                0x00000000c000f800                _hal_init_handlers_table
                0x00000000c000f83c                _hal_setup_new_handler
                0x00000000c000f84f                _hal_invalidate_handler
                0x00000000c000f863                _hal_setup_new_vectors_table_entry
                0x00000000c000f876                _hal_init_vectors_table
                0x00000000c000fb0c                _hal_speaker_on
                0x00000000c000fb49                _hal_speaker_off
                0x00000000c000fb77                _hal_test_speaker
                0x00000000c000fbb5                _hal_backbuffer_putpixel
                0x00000000c000fbd4                _hal_lfb_putpixel
                0x00000000c000fbf3                _hal_hardware_detect
                0x00000000c000fbfd                _hal_showpciinfo
                0x00000000c000fc0a                _init_cpu
                0x00000000c000fcc4                _hal_set_machine_type
                0x00000000c000fcd2                _hal_get_machine_type
                0x00000000c000fcdc                _hal_init_machine
                0x00000000c000fd46                _getGdt
                0x00000000c000fd50                _getIdt
                0x00000000c000fd5a                _hal_idt_register_interrupt
                0x00000000c000fdd9                _hal_vsync
                0x00000000c000fde7                _hal_reboot
                0x00000000c000fe05                _hal_shutdown
                0x00000000c000fe51                _init_hal
 .text          0x00000000c000febc      0x528 ahci.o
                0x00000000c000ff3a                _probe_port
                0x00000000c0010013                _ahciSetupDeviceStructure
                0x00000000c0010313                _ahciSATAInitialize
 .text          0x00000000c00103e4     0x1489 ata.o
                0x00000000c00103e4                _ata_wait
                0x00000000c0010417                _ata_delay
                0x00000000c0010439                _ata_wait_not_busy
                0x00000000c0010467                _ata_wait_busy
                0x00000000c0010495                _ata_wait_no_drq
                0x00000000c00104c9                _ata_wait_drq
                0x00000000c00104fd                _ata_soft_reset
                0x00000000c0010553                _ata_status_read
                0x00000000c001056f                _ata_cmd_write
                0x00000000c00105a9                _ata_assert_dever
                0x00000000c0010651                _ide_identify_device
                0x00000000c0010de7                _set_ata_addr
                0x00000000c0010e3d                _ide_mass_storage_initialize
                0x00000000c0010f15                _ide_dev_init
                0x00000000c00112fe                _nport_ajuste
                0x00000000c0011356                _ata_pio_read
                0x00000000c001137b                _ata_pio_write
                0x00000000c00113a0                _diskATAInitialize
                0x00000000c0011722                _show_ide_info
 .text          0x00000000c001186d      0x1a7 atadma.o
                0x00000000c001186d                _ide_dma_data
                0x00000000c001194c                _ide_dma_start
                0x00000000c0011986                _ide_dma_stop
                0x00000000c00119f5                _ide_dma_read_status
 .text          0x00000000c0011a14       0x44 atainit.o
                0x00000000c0011a14                _diskATADialog
 .text          0x00000000c0011a58      0x161 atairq.o
                0x00000000c0011a58                _ata_handler1
                0x00000000c0011a80                _ata_handler2
                0x00000000c0011aa8                _disk_get_ata_irq_invoked
                0x00000000c0011ab2                _disk_reset_ata_irq_invoked
                0x00000000c0011ac2                _ata_wait_irq
                0x00000000c0011b3c                _disk_ata_wait_irq
 .text          0x00000000c0011bb9      0xac0 atapci.o
                0x00000000c0011bb9                _diskReadPCIConfigAddr
                0x00000000c0011c18                _diskWritePCIConfigAddr
                0x00000000c0011c7c                _diskPCIScanDevice
                0x00000000c0011d99                _diskATAPCIConfigurationSpace
 .text          0x00000000c0012679      0x44e hdd.o
                0x00000000c00126af                _hdd_ata_pio_write
                0x00000000c00126e5                _hdd_ata_status_read
                0x00000000c0012713                _hdd_ata_wait_not_busy
                0x00000000c0012753                _hdd_ata_cmd_write
                0x00000000c00127a7                _hdd_ata_wait_no_drq
                0x00000000c00127ed                _pio_rw_sector
                0x00000000c0012a61                _my_read_hd_sector
                0x00000000c0012a8a                _my_write_hd_sector
                0x00000000c0012ab3                _init_hdd
 .text          0x00000000c0012ac7       0x4c channel.o
                0x00000000c0012ac7                _CreateChannel
                0x00000000c0012ad1                _DestroyChannel
                0x00000000c0012ae8                _OpenChannel
                0x00000000c0012af2                _CloseChannel
 .text          0x00000000c0012b13     0x13a2 network.o
                0x00000000c0012b13                _network_procedure
                0x00000000c0012dc9                _networkSetstatus
                0x00000000c0012de5                _networkGetStatus
                0x00000000c0012def                _networkInit
                0x00000000c0012ecb                _show_network_info
                0x00000000c0012f81                _show_current_nic_info
                0x00000000c00132bf                _handle_ipv6
                0x00000000c0013306                _network_test
                0x00000000c001335e                _testNIC
                0x00000000c0013457                _network_SendIPV4_UDP
                0x00000000c001383f                _SendARP
                0x00000000c0013bba                _network_driver_dialog
                0x00000000c0013c21                _network_decode_buffer
                0x00000000c0013d08                _do_ipv4
                0x00000000c0013d12                _do_ipv6
                0x00000000c0013d1c                _do_arp
 .text          0x00000000c0013eb5      0xe9f nicintel.o
                0x00000000c0013eb5                _PCIRegisterIRQHandler
                0x00000000c0013ee5                _e1000_init_nic
                0x00000000c00143b8                _xxxe1000handler
                0x00000000c001457c                _e1000_setup_irq
                0x00000000c0014627                _e1000_reset_controller
                0x00000000c0014aa0                _E1000WriteCommand
                0x00000000c0014ac3                _E1000ReadCommand
                0x00000000c0014ae0                _E1000AllocCont
                0x00000000c0014b59                _E1000Send
                0x00000000c0014c99                _send_ipv4_packet
                0x00000000c0014cbe                _nic_i8254x_transmit
                0x00000000c0014cc4                _E1000ReadEEPROM
 .text          0x00000000c0014d54      0x83d pci.o
                0x00000000c0014d54                _KiPciHandler1
                0x00000000c0014d5e                _KiPciHandler2
                0x00000000c0014d68                _KiPciHandler3
                0x00000000c0014d72                _KiPciHandler4
                0x00000000c0014d7c                _pciConfigReadByte
                0x00000000c0014e20                _pciConfigReadWord
                0x00000000c0014ec7                _pciConfigReadDWord
                0x00000000c0014f5f                _pciCheckVendor
                0x00000000c0014f89                _pciCheckDevice
                0x00000000c0014fb3                _pciGetClassCode
                0x00000000c0014fdd                _pciGetSubClass
                0x00000000c0015007                _pciGetHeaderType
                0x00000000c0015031                _pciGetBAR
                0x00000000c001512a                _pciGetInterruptLine
                0x00000000c0015154                _pciGetInterruptPin
                0x00000000c001517e                _pciHandleDevice
                0x00000000c00154b8                _init_pci
 .text          0x00000000c0015591      0x18a pciinfo.o
                0x00000000c0015591                _pciShowDeviceInfo
                0x00000000c0015611                _pciInfo
 .text          0x00000000c001571b      0x1f8 pciscan.o
                0x00000000c001571b                _pci_setup_devices
                0x00000000c0015827                _scan_pci_device_list
                0x00000000c001589f                _scan_pci_device_list2
 .text          0x00000000c0015913      0xba8 tty.o
                0x00000000c0015913                _tty_read_ttyList
                0x00000000c001595e                _tty_write_ttyList
                0x00000000c00159a9                ___tty_read
                0x00000000c0015aa0                ___tty_write
                0x00000000c0015c7d                _tty_send_message
                0x00000000c0015e40                _tty_gets
                0x00000000c0015e7e                _tty_read
                0x00000000c0015e88                _tty_write
                0x00000000c0015e92                _tty_sets
                0x00000000c0015ef2                _tty_ioctl
                0x00000000c0015f37                _tty_stop
                0x00000000c0015f5d                _tty_start
                0x00000000c0015f82                _tty_reset_termios
                0x00000000c0015ff2                _ttyldisc_create
                0x00000000c001602e                _ttyldisc_delete
                0x00000000c001604f                _ttydrv_create
                0x00000000c001608b                _ttydrv_delete
                0x00000000c00160ac                _tty_create
                0x00000000c00162c9                _tty_delete
                0x00000000c00162f5                _ttyInit
                0x00000000c001648a                _tty_init_module
 .text          0x00000000c00164bb      0x256 pty.o
                0x00000000c00164bb                _pty_link_by_pid
                0x00000000c001664e                _pty_link
                0x00000000c00166a3                _pty_unlink
                0x00000000c00166c7                _ptmx_open
 .text          0x00000000c0016711      0x6e2 vt.o
                0x00000000c0016711                __vt_outbyte
                0x00000000c001684e                _vt_outbyte
                0x00000000c0016b1e                _vt_scroll
                0x00000000c0016c04                _vt_create
                0x00000000c0016cf6                _vt_set_child
                0x00000000c0016d7d                _vt_set_pty
                0x00000000c0016dc5                _vt_init_module
 .text          0x00000000c0016df3       0x45 usb.o
                0x00000000c0016df3                _serial_bus_controller_init
                0x00000000c0016e32                _usbInit
 .text          0x00000000c0016e38      0x28b video.o
                0x00000000c0016e38                _videoSetupCGAStartAddress
                0x00000000c0016e46                _videoGetMode
                0x00000000c0016e50                _videoSetMode
                0x00000000c0016f1c                _videoInit
                0x00000000c00170a5                _videoVideo
 .text          0x00000000c00170c3       0xb9 vsync.o
                0x00000000c00170c3                _vsync
                0x00000000c0017157                _vsync_inb
 .text          0x00000000c001717c      0x14f screen.o
                0x00000000c001717c                _screenGetWidth
                0x00000000c0017186                _screenGetHeight
                0x00000000c0017190                _screenSetSize
                0x00000000c00171a6                _refresh_screen
                0x00000000c001720e                _screenRefresh
                0x00000000c0017230                _screenInit
 .text          0x00000000c00172cb      0x51a xproc.o
                0x00000000c00172cb                _test_move_window
                0x00000000c0017389                _test_move_window_2
                0x00000000c00173ab                _XPROC_SEND_MESSAGE
                0x00000000c00174b8                _xxxtestSHELLServer
                0x00000000c0017545                _xxxtestlibcSTDOUT
                0x00000000c001754b                _xxxtestlibc
                0x00000000c0017551                _procTestF6
                0x00000000c0017597                _system_procedure
                0x00000000c0017709                _registra_procedimento
                0x00000000c0017724                _SetProcedure
                0x00000000c001773a                _SendMessage
                0x00000000c0017756                _procedureHelp
                0x00000000c001775c                _procedureLinkDriverTest
                0x00000000c001779c                _procedureMakeTests
                0x00000000c00177a2                _procedureWindowWithFocusTest
                0x00000000c00177a8                _procedureGrid
 .text          0x00000000c00177e5      0x204 i8042.o
                0x00000000c00177e5                _prepare_for_input
                0x00000000c00177fb                _prepare_for_output
                0x00000000c0017811                _wait_then_read
                0x00000000c001782c                _wait_then_write
                0x00000000c001784f                _ps2
                0x00000000c0017932                _early_ps2_init
 .text          0x00000000c00179e9      0x1c9 keyboard.o
                0x00000000c00179e9                _get_scancode
                0x00000000c0017a4f                _abnt2_keyboard_handler
                0x00000000c0017b5c                _KiKeyboard
 .text          0x00000000c0017bb2       0x26 mouse.o
                0x00000000c0017bb2                _mouse_handler
 .text          0x00000000c0017bd8      0xe8d ps2kbd.o
                0x00000000c0017bd8                ___local_ps2kbd_procedure
                0x00000000c0017cd9                _KEYBOARD_SEND_MESSAGE
                0x00000000c00180fa                _keyboard_read
                0x00000000c0018133                _keyboard_write
                0x00000000c0018171                _BAT_TEST
                0x00000000c001822f                _ps2kbd_globals_initialize
                0x00000000c001836c                _ps2kbd_initialize_device
                0x00000000c0018421                _keyboardGetKeyState
                0x00000000c00184c4                _ldisc_init_modifier_keys
                0x00000000c00184f2                _ldisc_init_lock_keys
                0x00000000c0018516                _keyboardEnable
                0x00000000c0018549                _keyboardDisable
                0x00000000c001857c                _keyboard_set_leds
                0x00000000c00185fc                _KdGetWindowPointer
                0x00000000c0018634                _KbGetMessage
                0x00000000c0018673                _KbGetLongParam1
                0x00000000c001869e                _KbGetLongParam2
                0x00000000c00186c9                _get_alt_status
                0x00000000c00186d3                _get_ctrl_status
                0x00000000c00186dd                _get_shift_status
                0x00000000c00186e7                _kbdc_wait
                0x00000000c0018758                _set_current_keyboard_responder
                0x00000000c0018766                _get_current_keyboard_responder
                0x00000000c0018770                ___do_35
                0x00000000c0018882                ___do_111
 .text          0x00000000c0018a65      0xc24 ps2mouse.o
                0x00000000c0018a65                _MOUSE_SEND_MESSAGE
                0x00000000c0018a85                _mouse_write
                0x00000000c0018ac2                _mouse_read
                0x00000000c0018adc                _MOUSE_BAT_TEST
                0x00000000c0018b9c                _ps2_mouse_globals_initialize
                0x00000000c0018c86                _ps2mouse_initialize_device
                0x00000000c0018e79                _kernelPS2MouseDriverReadData
                0x00000000c0018e7f                _load_mouse_bmp
                0x00000000c0018f34                _set_current_mouse_responder
                0x00000000c0018f42                _get_current_mouse_responder
                0x00000000c0018f4c                _update_mouse
                0x00000000c0019006                _ps2_mouse_get_info
                0x00000000c0019082                _ps2mouse_change_and_show_pointer_bmp
                0x00000000c001925a                _ps2mouse_parse_data_packet
                0x00000000c0019511                _mouseHandler
                0x00000000c00195e4                _expect_ack
                0x00000000c00195f8                _set_ps2_mouse_status
                0x00000000c0019606                _get_ps2_mouse_status
                0x00000000c0019610                _ps2_mouse_dialog
 .text          0x00000000c0019689       0xa0 ldisc.o
                0x00000000c0019689                _initialize_system_message_queue
                0x00000000c001971f                _ldisc_dialog
 .text          0x00000000c0019729        0x0 apic.o
 .text          0x00000000c0019729        0x0 pic.o
 .text          0x00000000c0019729      0x3f0 rtc.o
                0x00000000c0019729                _KiRtcIrq
                0x00000000c001974f                _rtc_irq
                0x00000000c00197a8                _read_cmos_bcd
                0x00000000c0019813                _get_time
                0x00000000c001985e                _get_date
                0x00000000c00198af                _rtcGetExtendedMemory
                0x00000000c0019910                _rtcGetBaseMemory
                0x00000000c0019971                _get_cmos_info
                0x00000000c0019ad9                _init_clock
 .text          0x00000000c0019b19      0x1d9 serial.o
                0x00000000c0019b19                _serial1_handler
                0x00000000c0019b37                _serial2_handler
                0x00000000c0019b55                _serial3_handler
                0x00000000c0019b61                _serial4_handler
                0x00000000c0019b6d                _serial_write_char
                0x00000000c0019baf                _serial_init_port
                0x00000000c0019c55                _serial_init
 .text          0x00000000c0019cf2      0x8ab pit.o
                0x00000000c0019cf2                _KiTimer
                0x00000000c0019d18                _timer
                0x00000000c001a04b                _timerEnableTextCursor
                0x00000000c001a05b                _timerDisableTextCursor
                0x00000000c001a06b                _new_timer_id
                0x00000000c001a0a3                _create_timer
                0x00000000c001a2a0                _timerInit8253
                0x00000000c001a305                _set_quantum
                0x00000000c001a313                _get_quantum
                0x00000000c001a31d                _set_current_quantum
                0x00000000c001a32b                _get_current_quantum
                0x00000000c001a335                _set_next_quantum
                0x00000000c001a343                _get_next_quantum
                0x00000000c001a34d                _now
                0x00000000c001a35a                _set_systime_hz
                0x00000000c001a368                _get_systime_hz
                0x00000000c001a372                _get_systime_ms
                0x00000000c001a37c                _get_systime_totalticks
                0x00000000c001a386                _get_systime_info
                0x00000000c001a3bf                _sleep
                0x00000000c001a3de                _set_timeout
                0x00000000c001a3ec                _get_timeout
                0x00000000c001a3f6                _timerTimer
                0x00000000c001a432                _timerInit
                0x00000000c001a4e6                _early_timer_init
 .text          0x00000000c001a59d       0xdf cf.o
                0x00000000c001a59d                _fs_create_file
                0x00000000c001a666                _fs_create_dir
                0x00000000c001a670                _fs_create_entry
                0x00000000c001a676                _fs_create_name
 .text          0x00000000c001a67c        0xc format.o
                0x00000000c001a67c                _fs_delete_entry
                0x00000000c001a682                _fsClearFat
 .text          0x00000000c001a688      0x63b pipe.o
                0x00000000c001a688                _sys_dup
                0x00000000c001a7fb                _sys_dup2
                0x00000000c001a91d                _sys_dup3
                0x00000000c001aa3f                _sys_pipe
                0x00000000c001acaf                _sys_read_pipe
                0x00000000c001acb9                _sys_write_pipe
 .text          0x00000000c001acc3     0x180e fs.o
                0x00000000c001acc3                _fs_get_mounted_free_slot
                0x00000000c001acf7                _fs_mount_volume
                0x00000000c001ae41                _fs_initialize_mounted_list
                0x00000000c001aeba                _fs_show_mounted
                0x00000000c001af55                _fs_show_mounted_list
                0x00000000c001af8e                _fs_get_free_fd
                0x00000000c001affd                _fsCheckELFFile
                0x00000000c001b058                _fsCheckPEFile
                0x00000000c001b099                _fsListFiles
                0x00000000c001b105                _fsList
                0x00000000c001b186                _fsFAT16ListFiles
                0x00000000c001b211                _get_file
                0x00000000c001b22d                _set_file
                0x00000000c001b251                _fs_test_fat_vector
                0x00000000c001b257                _fs_get_fat_entry
                0x00000000c001b261                _fs_set_fat_entry
                0x00000000c001b267                _fs_set_entry
                0x00000000c001b26d                _fs_get_entry
                0x00000000c001b273                _fs_show_dir_entry
                0x00000000c001b279                _fs_show_dir
                0x00000000c001b27f                _fs_check_cluster
                0x00000000c001b289                _fs_check_fat
                0x00000000c001b293                _fs_show_entry
                0x00000000c001b299                _fs_get_entry_status
                0x00000000c001b2a3                _fs_set_entry_status
                0x00000000c001b2a9                _fsCheckMbrFile
                0x00000000c001b40d                _fsCheckVbrFile
                0x00000000c001b473                _MountShortFileName
                0x00000000c001b559                _set_spc
                0x00000000c001b567                _get_spc
                0x00000000c001b571                _get_filesystem_type
                0x00000000c001b57b                _set_filesystem_type
                0x00000000c001b589                _fs_init_fat
                0x00000000c001b5f9                _fs_init_structures
                0x00000000c001b763                _fs_show_root_fs_info
                0x00000000c001b87c                _fsInit
                0x00000000c001baa9                _fsInitializeWorkingDiretoryString
                0x00000000c001bba9                _fsInitTargetDir
                0x00000000c001bbb9                _fs_initialize_process_pwd
                0x00000000c001bc7a                _fs_print_process_pwd
                0x00000000c001bd2d                _fsUpdateWorkingDiretoryString
                0x00000000c001be59                _fs_pathname_backup
                0x00000000c001bf93                _sys_read_file
                0x00000000c001c29d                _fsLoadFileFromCurrentTargetDir
                0x00000000c001c354                _sys_write_file
                0x00000000c001c39f                _fs_create_empty_file
                0x00000000c001c3fa                _sys_create_empty_file
                0x00000000c001c438                _fs_create_empty_directory
                0x00000000c001c493                _sys_create_empty_directory
 .text          0x00000000c001c4d1      0x699 read.o
                0x00000000c001c4d1                _read_fntos
                0x00000000c001c621                _fatClustToSect
                0x00000000c001c649                _fatLoadCluster
                0x00000000c001c686                _read_lba
                0x00000000c001c6c4                _fsLoadFile
                0x00000000c001c8e6                _fs_load_fatEx
                0x00000000c001c936                _load_directory
                0x00000000c001c981                _fs_load_rootdir
                0x00000000c001c9a1                _fs_load_rootdirEx
                0x00000000c001c9af                _fs_load_dir
                0x00000000c001c9b5                _fsGetFileSize
 .text          0x00000000c001cb6a      0x30b search.o
                0x00000000c001cb6a                _KiSearchFile
                0x00000000c001cc89                _fsSearchFile
                0x00000000c001cd81                _fs_find_empty_entry
                0x00000000c001cd8b                _findEmptyDirectoryEntry
                0x00000000c001cde4                _fs_find_n_empty_entries
                0x00000000c001ce5f                _fsSearchFileName
 .text          0x00000000c001ce75      0x640 write.o
                0x00000000c001ce75                _write_fntos
                0x00000000c001cf9f                _fatWriteCluster
                0x00000000c001cfdb                _write_lba
                0x00000000c001d04d                _fsSaveFile
                0x00000000c001d4a3                _fs_save_rootdir
                0x00000000c001d4a9                _fs_save_dir
                0x00000000c001d4af                _fs_save_entry_on_root
 .text          0x00000000c001d4b5     0x15c2 cedge.o
                0x00000000c001d4b5                ___local_ri
                0x00000000c001d4bb                ___local_gotoxy
                0x00000000c001d522                ___respond
                0x00000000c001d55b                ___local_save_cur
                0x00000000c001d58b                ___local_restore_cur
                0x00000000c001d5bf                ___local_insert_char
                0x00000000c001d5d8                ___local_insert_line
                0x00000000c001d67f                ___local_delete_char
                0x00000000c001d698                ___local_delete_line
                0x00000000c001d731                _csi_J
                0x00000000c001d737                _csi_K
                0x00000000c001d73d                _csi_m
                0x00000000c001d7a4                _csi_M
                0x00000000c001d7fe                _csi_L
                0x00000000c001d85e                _csi_P
                0x00000000c001d8c4                _csi_at
                0x00000000c001d92a                __console_outbyte
                0x00000000c001da51                _console_outbyte
                0x00000000c001de44                _console_putchar
                0x00000000c001deff                ___console_write
                0x00000000c001df84                _console_read
                0x00000000c001df8e                _console_write
                0x00000000c001e715                _console_scroll
                0x00000000c001e81c                _kclear
                0x00000000c001e880                _kclearClientArea
                0x00000000c001e89c                _insert_line
                0x00000000c001e8a6                _REFRESH_STREAM
                0x00000000c001e97b                _console_set_current_virtual_console
                0x00000000c001e99a                _console_get_current_virtual_console
                0x00000000c001e9a4                _console_init_virtual_console
 .text          0x00000000c001ea77      0x129 bg.o
                0x00000000c001ea77                _backgroundDraw
                0x00000000c001eaec                _backgroundSetColor
                0x00000000c001eaf2                _backgroundRedraw
                0x00000000c001eb23                _backgroundBackground
                0x00000000c001eb55                _backgroundInit
 .text          0x00000000c001eba0      0x99d bmp.o
                0x00000000c001eba0                _bmpDirectDisplayBMP
                0x00000000c001f028                _bmpDisplayBMP
                0x00000000c001f4ab                _bmpDisplayMousePointerBMP
                0x00000000c001f4f4                _bmpDisplayCursorBMP
 .text          0x00000000c001f53d      0x7b3 button.o
                0x00000000c001f53d                _update_button
                0x00000000c001f673                _draw_button
                0x00000000c001f903                _redraw_button
                0x00000000c001faeb                _button_down
                0x00000000c001fc04                _button_up
 .text          0x00000000c001fcf0      0x2a9 char.o
                0x00000000c001fcf0                _my_buffer_char_blt
                0x00000000c001fd0d                _set_char_width
                0x00000000c001fd1b                _set_char_height
                0x00000000c001fd29                _get_char_width
                0x00000000c001fd33                _get_char_height
                0x00000000c001fd3d                _drawchar_transparent
                0x00000000c001fe68                _draw_char
 .text          0x00000000c001ff99     0x1110 createw.o
                0x00000000c001ff99                _DrawIcon
                0x00000000c001ffc7                _DrawTitleBar
                0x00000000c0020055                _DrawFrame
                0x00000000c002033c                _CreateWindow
                0x00000000c0020dbc                _kgws_create_window
 .text          0x00000000c00210a9       0xd7 dtext.o
                0x00000000c00210a9                _draw_text
                0x00000000c002110f                _draw_string
 .text          0x00000000c0021180       0xd9 font.o
                0x00000000c0021180                _gwsSetCurrentFontAddress
                0x00000000c002118e                _gwsGetCurrentFontAddress
                0x00000000c0021198                _gwsSetCurrentFontCharWidth
                0x00000000c00211af                _gwsSetCurrentFontCharHeight
                0x00000000c00211c6                _gwsGetCurrentFontCharWidth
                0x00000000c00211d3                _gwsGetCurrentFontCharHeight
                0x00000000c00211e0                _gwsInstallFont
 .text          0x00000000c0021259      0x34f grid.o
                0x00000000c0021259                _InitializeGridObject
                0x00000000c00214b9                _CreateGrid
                0x00000000c0021530                _grid
 .text          0x00000000c00215a8       0xc3 line.o
                0x00000000c00215a8                _my_buffer_horizontal_line
                0x00000000c00215d3                _refresh_horizontal_line
 .text          0x00000000c002166b      0x8fe menu.o
                0x00000000c002166b                _create_menu
                0x00000000c002189a                _create_menu_item
                0x00000000c0021ae6                _set_current_menu
                0x00000000c0021aff                _get_current_menu
                0x00000000c0021b20                _RegisterMenu
                0x00000000c0021b8d                _initmenuArray
                0x00000000c0021cbe                _ControlMenu
                0x00000000c0021cd4                _MainMenu
                0x00000000c0021dd1                _MainMenuProcedure
                0x00000000c0021f1d                _init_menus
 .text          0x00000000c0021f69      0x84e menubar.o
                0x00000000c0021f69                _create_menubar
                0x00000000c00220f5                _create_menubar_item
                0x00000000c00223f6                _select_menubar_item
                0x00000000c0022431                _unselect_menubar_item
                0x00000000c002246c                _redraw_menubar_item
                0x00000000c00225ef                _get_menubar_selected_item
                0x00000000c0022602                _kgws_create_menubar
                0x00000000c0022710                _MenuBarProcedure
 .text          0x00000000c00227b7      0x2a1 pixel.o
                0x00000000c00227b7                _pixelPutPixelWindowBuffer
                0x00000000c00227bd                _pixelPutPixelDedicatedWindowBuffer
                0x00000000c00227c3                _backbuffer_putpixel
                0x00000000c00228a7                _lfb_putpixel
                0x00000000c0022979                _get_pixel
                0x00000000c00229e1                _refresh_pixel
 .text          0x00000000c0022a58      0x697 rect.o
                0x00000000c0022a58                _rectStrCopyMemory32
                0x00000000c0022ab9                _drawDataRectangle
                0x00000000c0022b57                _getClientAreaRect
                0x00000000c0022b61                _setClientAreaRect
                0x00000000c0022ba1                _refresh_rectangle
                0x00000000c0022cc3                _refresh_rectangle2
                0x00000000c0022df6                _initialize_saved_rect
                0x00000000c0022eda                _save_rect
                0x00000000c0022f67                _show_saved_rect
                0x00000000c0022fd3                _scroll_screen_rect
 .text          0x00000000c00230ef      0x33d sbar.o
                0x00000000c00230ef                _UpdateStatusBar
                0x00000000c002325c                _StatusBar
 .text          0x00000000c002342c      0x17d toolbar.o
                0x00000000c002342c                _ToolBar
 .text          0x00000000c00235a9     0x2c77 wm.o
                0x00000000c00235a9                _save_window
                0x00000000c0023625                _show_saved_window
                0x00000000c0023681                _show_window_rect
                0x00000000c00236f2                _windowKillTimer
                0x00000000c0023735                _windowSetTimer
                0x00000000c0023778                _windowGetWindowID
                0x00000000c00237a8                _windowGetMainWindowDescriptor
                0x00000000c00237d8                _GetParentWindow
                0x00000000c00237f3                _GetWindowDesktop
                0x00000000c002380e                _windowSetUpColorScheme
                0x00000000c0023a3e                _windowSelectColorScheme
                0x00000000c0023b58                _windowShowWWFMessageBuffers
                0x00000000c0023baf                _windowSendMessage
                0x00000000c0023c33                _windowGetHandleWindow
                0x00000000c0023c3d                _windowGetMessage
                0x00000000c0023cb7                _windowGetLong1
                0x00000000c0023ce5                _windowGetLong2
                0x00000000c0023cef                _window_getch
                0x00000000c0023dac                _windowCreateDedicatedBuffer
                0x00000000c0023e1c                _windowLock
                0x00000000c0023e37                _windowUnlock
                0x00000000c0023e52                _set_current_window
                0x00000000c0023e73                _get_current_window
                0x00000000c0023e7d                _RegisterWindow
                0x00000000c0023f09                _windowShowWindowList
                0x00000000c0024251                _redraw_window
                0x00000000c0024c49                _redraw_screen
                0x00000000c0024cdc                _resize_window
                0x00000000c0024ee6                _replace_window
                0x00000000c00250b7                _is_window_full
                0x00000000c00250e2                _is_window_maximized
                0x00000000c002510d                _is_window_minimized
                0x00000000c0025138                _CloseWindow
                0x00000000c0025225                _DestroyWindow
                0x00000000c002523c                _get_active_window
                0x00000000c0025246                _set_active_window
                0x00000000c002524c                _change_active_window
                0x00000000c0025262                _show_active_window
                0x00000000c0025281                _show_window_with_focus
                0x00000000c00252a0                _CloseActiveWindow
                0x00000000c002531d                _windowBlockFocus
                0x00000000c002532d                _windowUnblockFocus
                0x00000000c002533d                _SetFocus
                0x00000000c00253ca                _GetFocus
                0x00000000c00253eb                _windowGetForegroundWindow
                0x00000000c00253fc                _windowSetForegroundWindow
                0x00000000c0025443                _raise_window
                0x00000000c0025493                _windowSwitchFocus
                0x00000000c002557c                _KillFocus
                0x00000000c0025582                _MinimizeWindow
                0x00000000c00255e3                _MaximizeWindow
                0x00000000c00256ab                _init_window_manager
                0x00000000c00256fd                _init_windows
                0x00000000c0025907                _get_zorder
                0x00000000c002591f                _getTopWindow
                0x00000000c0025936                _get_top_window
                0x00000000c0025940                _set_top_window
                0x00000000c002596c                _closeActiveWindow
                0x00000000c00259a0                _z_order_get_free_slot
                0x00000000c0025a0e                _windowLoadGramadoIcons
                0x00000000c0025c00                _top_at
                0x00000000c0025cb7                _windowScan
                0x00000000c0025da7                _windowOverLappedScan
                0x00000000c0025e88                _windowUpdateWindow
                0x00000000c0025f47                _windowSwitchFullScreen
                0x00000000c0026216                _scroll_client_window
 .text          0x00000000c0026220       0xe7 logoff.o
                0x00000000c0026220                _StartLogoff
                0x00000000c002623d                _init_logoff
 .text          0x00000000c0026307      0x60c logon.o
                0x00000000c0026307                _create_logon
                0x00000000c00265d6                _ExitLogon
                0x00000000c0026616                _SetLogonParameters
                0x00000000c00266c1                _logon_create_screen
                0x00000000c002679b                _logon_create_background
                0x00000000c00267a1                _logon_create_mainwindow
                0x00000000c00267b8                _logon_create_logo
                0x00000000c00267be                _logon_create_taskbar
                0x00000000c00267c4                _logon_create_controlmenu
                0x00000000c00267ca                _logon_create_infobox
                0x00000000c00267d0                _logon_create_messagebox
                0x00000000c00267d6                _logon_create_debug
                0x00000000c00267dc                _logon_create_navigationbar
                0x00000000c00267e2                _logon_create_grid
                0x00000000c00267e8                _logon_create_developer_screen
                0x00000000c00267ee                _LogonProcedure
                0x00000000c0026842                _init_logon
 .text          0x00000000c0026913        0x0 input.o
 .text          0x00000000c0026913        0x0 output.o
 .text          0x00000000c0026913      0x44f terminal.o
                0x00000000c0026913                _terminal_dialog
                0x00000000c002691d                _systemSetTerminalWindow
                0x00000000c0026d3e                _systemGetTerminalWindow
                0x00000000c0026d48                _systemSetTerminalRectangle
                0x00000000c0026d4e                _terminalInit
 .text          0x00000000c0026d62      0x47d desktop.o
                0x00000000c0026d62                _RegisterDesktop
                0x00000000c0026db8                _set_current_desktop
                0x00000000c0026dd9                _get_current_desktop
                0x00000000c0026e04                _get_current_desktop_id
                0x00000000c0026e0e                _init_desktop_list
                0x00000000c0026e39                _CreateDesktop
                0x00000000c0026ecb                _set_current_menuwindow
                0x00000000c0026ee8                _set_current_foreground
                0x00000000c0026f08                _set_current_messagewindow
                0x00000000c0026f28                _set_current_traywindow
                0x00000000c0026f48                _set_current_tooltipwindow
                0x00000000c0026f68                _change_foreground
                0x00000000c0026fbb                _set_current_sysMenu
                0x00000000c0026fd8                _set_current_dialogsysMenu
                0x00000000c0026ff8                _set_current_menuHScroll
                0x00000000c0027018                _set_current_menuVScroll
                0x00000000c0027038                _init_desktop
                0x00000000c002719f                _desktop_setup_ws
                0x00000000c00271bf                _desktop_setup_wm
 .text          0x00000000c00271df      0x1b7 room.o
                0x00000000c00271df                _get_current_room
                0x00000000c0027200                _set_current_room
                0x00000000c0027219                _CreateRoom
                0x00000000c00272ab                _RegisterRoom
                0x00000000c00272f8                _init_room_list
                0x00000000c0027323                _init_room_manager
 .text          0x00000000c0027396      0x474 userenv.o
                0x00000000c0027396                _startUserEnvironment
                0x00000000c00273cd                _ShowUserInfo
                0x00000000c0027474                _config_user
                0x00000000c0027484                _CreateUser
                0x00000000c002756d                _SetCurrentUserId
                0x00000000c002759b                _GetCurrentUserId
                0x00000000c00275a5                _SetCurrentGroupId
                0x00000000c00275d3                _GetCurrentGroupId
                0x00000000c00275dd                _UpdateUserInfo
                0x00000000c002763f                _init_user_info
                0x00000000c002774a                ___getusername
                0x00000000c0027797                ___setusername
                0x00000000c00277f6                _init_user_environment_manager
 .text          0x00000000c002780a      0x23e usession.o
                0x00000000c002780a                _get_current_user_session
                0x00000000c0027835                _CreateUserSession
                0x00000000c00278fb                _open_user_session
                0x00000000c0027936                _close_user_session
                0x00000000c00279a1                _init_user_session
 .text          0x00000000c0027a48      0xea4 kgwm.o
                0x00000000c0027a48                _gwsOpen
                0x00000000c0027a5c                _gwsClose
                0x00000000c0027a70                _kgwmRegisterWindowManager
                0x00000000c0027abb                _create_gui
                0x00000000c0027d79                _SetGuiParameters
                0x00000000c0027e12                _gui_create_screen
                0x00000000c0027ecb                _gui_create_background
                0x00000000c0027fa4                _gui_create_taskbar
                0x00000000c0028073                _gui_create_mainwindow
                0x00000000c00281c5                _gui_create_logo
                0x00000000c00281cb                _gui_create_controlmenu
                0x00000000c00281d1                _gui_create_infobox
                0x00000000c00281ee                _gui_create_messagebox
                0x00000000c002820e                _gui_create_debug
                0x00000000c002822e                _gui_create_navigationbar
                0x00000000c0028234                _gui_create_grid
                0x00000000c0028251                _guiGetScreenWindow
                0x00000000c002826e                _guiGetDeveloperScreenWindow
                0x00000000c002828b                _guiGetBackgroundWindow
                0x00000000c00282a8                _guiGetLogoWindow
                0x00000000c00282c5                _guiGetDesktopWindow
                0x00000000c00282e2                _guiGetTaskbarWindow
                0x00000000c00282ff                _guiGetMainWindow
                0x00000000c002831c                _guiGetStatusbarWindow
                0x00000000c0028339                _guiGetGridWindow
                0x00000000c0028356                _guiGetMenuWindow
                0x00000000c0028373                _guiGetInfoboxWindow
                0x00000000c0028390                _guiGetTooltipWindow
                0x00000000c00283b0                _guiGetMessageboxWindow
                0x00000000c00283d0                _guiGetDialogboxWindow
                0x00000000c00283f0                _guiGetDebugWindow
                0x00000000c0028410                _guiGetMbhWindowWindow
                0x00000000c0028430                _guiGetTopbarWindow
                0x00000000c0028450                _guiGetNavigationbarWindow
                0x00000000c0028470                _guiGetShellWindowWindow
                0x00000000c0028490                _guiGetShellClientWindowWindow
                0x00000000c00284b0                _guiSetUpMainWindow
                0x00000000c002854b                _init_gui
                0x00000000c00285a7                _kgwm_mouse_dialog
                0x00000000c0028602                _kgwm_window_control_dialog
                0x00000000c00288e2                _init_gramado
 .text          0x00000000c00288ec      0xb61 kgws.o
                0x00000000c00288ec                _kgws_mouse_scan_windows
                0x00000000c00292bb                _kgwsRegisterWindowServer
                0x00000000c0029306                _kgws_send_to_controlthread_of_currentwindow
 .text          0x00000000c002944d      0x276 vfs.o
                0x00000000c002944d                _vfsInit
                0x00000000c0029601                _vfs_show_handle_list
                0x00000000c0029651                _vfsShowVFSInfo
                0x00000000c0029657                _vfsListFiles
 .text          0x00000000c00296c3      0x506 x86cont.o
                0x00000000c00296cf                _save_current_context
                0x00000000c00298ac                _restore_current_context
                0x00000000c0029a6c                _contextCheckThreadRing0Context
                0x00000000c0029a76                _contextCheckThreadRing3Context
                0x00000000c0029b91                _KiCheckTaskContext
                0x00000000c0029ba7                _KiSaveCurrentContext
                0x00000000c0029bb5                _KiRestoreCurrentContext
                0x00000000c0029bc3                _save_context_of_new_task
 .text          0x00000000c0029bc9      0x27d x86fault.o
                0x00000000c0029bc9                _faults
                0x00000000c0029de5                _KiCpuFaults
                0x00000000c0029dfc                _do_pagefault
 .text          0x00000000c0029e46      0x16a x86start.o
                0x00000000c0029e46                _start_task
                0x00000000c0029e66                _switch_to_user_mode
                0x00000000c0029e7f                _executa_tarefa
                0x00000000c0029f67                _KiSwitchToUserMode
                0x00000000c0029f75                _KiExecutaTarefa
                0x00000000c0029f7f                _KiInitTask
                0x00000000c0029fa2                _KiInitTasks
 .text          0x00000000c0029fb0      0x80b dispatch.o
                0x00000000c0029fb0                _dispatcher
                0x00000000c002a0c3                _readyDispatcher
                0x00000000c002a134                _syscoopDispatcher
                0x00000000c002a1d1                _usercoopDispatcher
                0x00000000c002a26e                _sysconcDispatcher
                0x00000000c002a30b                _userconcDispatcher
                0x00000000c002a3a8                _systemDispatcher
                0x00000000c002a3b2                _idleDispatcher
                0x00000000c002a3bc                _periodicDispatcher
                0x00000000c002a3c6                _rrDispatcher
                0x00000000c002a3d0                _realtimeDispatcher
                0x00000000c002a3da                _dispatch_Default
                0x00000000c002a598                _dispatch_thread2
                0x00000000c002a5dd                _dispatch_thread
                0x00000000c002a65e                _init_dispatcher
                0x00000000c002a707                _IncrementDispatcherCount
 .text          0x00000000c002a7bb        0x0 pheap.o
 .text          0x00000000c002a7bb     0x196c process.o
                0x00000000c002a7bb                ___GetProcessStats
                0x00000000c002aab4                _getprocessname
                0x00000000c002ab1b                _processObject
                0x00000000c002ab4f                _getNewPID
                0x00000000c002ab8a                _processTesting
                0x00000000c002abd0                _processSendSignal
                0x00000000c002ac00                _processCopyMemory
                0x00000000c002ad3a                _processCopyProcess
                0x00000000c002b113                _create_process
                0x00000000c002b55c                _CloseAllProcesses
                0x00000000c002b5c8                _show_currentprocess_info
                0x00000000c002b70b                _show_process_information
                0x00000000c002b88c                _SetProcessDirectory
                0x00000000c002b8a4                _GetProcessDirectory
                0x00000000c002b8bf                _GetPageDirValue
                0x00000000c002b8cc                _init_task
                0x00000000c002b8d6                _init_tasks
                0x00000000c002b8e4                _init_processes
                0x00000000c002b930                _exit_process
                0x00000000c002ba8c                _get_caller_process_id
                0x00000000c002ba96                _set_caller_process_id
                0x00000000c002baa4                _init_process_manager
                0x00000000c002bac2                _GetProcessHeapStart
                0x00000000c002bb1b                _GetProcessPageDirectoryAddress
                0x00000000c002bb74                _get_stream_from_fd
                0x00000000c002bbb0                ___execute_new_process
                0x00000000c002bd14                _process_get_tty
                0x00000000c002bd62                _process_execve
 .text          0x00000000c002c127      0xd3e clone.o
                0x00000000c002c127                _sys_fork_process
                0x00000000c002c144                _clone_process
                0x00000000c002ca42                _clone_and_execute_process
 .text          0x00000000c002ce65     0x1065 queue.o
                0x00000000c002ce65                _init_queue
                0x00000000c002d2ba                _queue_insert_data
                0x00000000c002d752                _queue_insert_head
                0x00000000c002d8f2                _queue_get_data
                0x00000000c002dbc5                _show_queue_information
                0x00000000c002dc59                _ScanReadyQueue
                0x00000000c002dd12                _feed_ready_queue
 .text          0x00000000c002deca      0x251 spawn.o
                0x00000000c002ded6                _KiSpawnTask
                0x00000000c002df24                _spawn_thread
 .text          0x00000000c002e11b        0xc tasks.o
                0x00000000c002e11b                _task0
                0x00000000c002e121                _task1
 .text          0x00000000c002e127       0x1b theap.o
                0x00000000c002e127                _GetThreadHeapStart
 .text          0x00000000c002e142     0x11cc thread.o
                0x00000000c002e142                ___GetThreadStats
                0x00000000c002e3b8                _getthreadname
                0x00000000c002e41a                _thread_profiler
                0x00000000c002e59d                _thread_get_profiler_percentage
                0x00000000c002e5c9                _thread_show_profiler_info
                0x00000000c002e668                _threadCopyThread
                0x00000000c002eabb                _create_thread
                0x00000000c002ef93                _GetCurrentThreadId
                0x00000000c002ef9d                _GetCurrentThread
                0x00000000c002efe0                _FindReadyThread
                0x00000000c002f03e                _SelectForExecution
                0x00000000c002f070                _GetThreadState
                0x00000000c002f088                _GetThreadType
                0x00000000c002f0a0                _show_thread_information
                0x00000000c002f192                _init_threads
                0x00000000c002f213                _thread_getchar
 .text          0x00000000c002f30e      0xc74 threadi.o
                0x00000000c002f30e                _xxxRing0Idle
                0x00000000c002f315                _KiCreateRing0Idle
                0x00000000c002f722                _fork
                0x00000000c002f72c                _KiFork
                0x00000000c002f736                _KiShowPreemptedTask
                0x00000000c002f73c                _KiSetTaskStatus
                0x00000000c002f753                _KiGetTaskStatus
                0x00000000c002f760                _KiSaveContextOfNewTask
                0x00000000c002f766                _KiSetQuantum
                0x00000000c002f76c                _KiGetQuantum
                0x00000000c002f776                _KiSetCurrentQuantum
                0x00000000c002f77c                _KiGetCurrentQuantum
                0x00000000c002f786                _KiSetNextQuantum
                0x00000000c002f78c                _KiGetNextQuantum
                0x00000000c002f796                _KiSetFocus
                0x00000000c002f79c                _KiGetFocus
                0x00000000c002f7a6                _KiDebugBreakpoint
                0x00000000c002f7ac                _KiShowTasksParameters
                0x00000000c002f7b2                _show_slots
                0x00000000c002f81f                _show_slot
                0x00000000c002f93b                _show_reg
                0x00000000c002fa6d                _set_thread_priority
                0x00000000c002fb08                _SetThreadDirectory
                0x00000000c002fb22                _GetThreadDirectory
                0x00000000c002fb3d                _show_preempted_task
                0x00000000c002fb43                _show_tasks_parameters
                0x00000000c002fb49                _release
                0x00000000c002fb93                _exit_thread
                0x00000000c002fcba                _kill_thread
                0x00000000c002fdfa                _dead_thread_collector
                0x00000000c002ff0a                _kill_all_threads
                0x00000000c002ff3b                _check_for_dead_thread_collector
 .text          0x00000000c002ff82      0x6a1 ts.o
                0x00000000c002ff82                _KiTaskSwitch
                0x00000000c002fff0                _task_switch
                0x00000000c00304a8                _taskswitchRR
                0x00000000c00305eb                _set_task_status
                0x00000000c00305f9                _get_task_status
                0x00000000c0030603                _taskswitch_lock
                0x00000000c0030613                _taskswitch_unlock
 .text          0x00000000c0030623       0x1b tstack.o
                0x00000000c0030623                _GetThreadStackStart
 .text          0x00000000c003063e        0x0 callout.o
 .text          0x00000000c003063e        0x0 callfar.o
 .text          0x00000000c003063e      0x380 ipc.o
                0x00000000c003063e                _ipc_send_to_ws
                0x00000000c003077c                _ipc_send_message_to_process
                0x00000000c0030876                _ipc_send_message_to_thread
                0x00000000c00309b4                _ipc_init
 .text          0x00000000c00309be      0x364 ipccore.o
                0x00000000c00309be                _ipcore_services
                0x00000000c0030a34                _ipccore_open
                0x00000000c0030b23                _ipccore_close
                0x00000000c0030c64                _ipccore_register
 .text          0x00000000c0030d22       0xe0 sem.o
                0x00000000c0030d22                _init_semaphore
                0x00000000c0030d42                _Down
                0x00000000c0030d8a                _Up
                0x00000000c0030dc4                _semaphore_down
                0x00000000c0030dd5                _semaphore_up
                0x00000000c0030de6                _create_semaphore
                0x00000000c0030df0                _delete_semaphore
                0x00000000c0030df6                _open_semaphore
                0x00000000c0030dfc                _close_semaphore
 .text          0x00000000c0030e02      0x9b0 memory.o
                0x00000000c0030e02                _get_process_heap_pointer
                0x00000000c0030ea4                _memory_create_new_head
                0x00000000c0031027                _memory_destroy_heap
                0x00000000c003108c                _heapAllocateMemory
                0x00000000c0031262                _FreeHeap
                0x00000000c0031322                _init_heap
                0x00000000c0031469                _init_stack
                0x00000000c00314d3                _init_mm
                0x00000000c003160e                _gcGRAMADO
                0x00000000c0031618                _gcEXECUTIVE
                0x00000000c003173d                _gcMICROKERNEL
                0x00000000c0031747                _gcHAL
                0x00000000c0031751                _gc
 .text          0x00000000c00317b2      0x923 mminfo.o
                0x00000000c00317b2                _mmShowPDE
                0x00000000c003184d                _mmShowPDEForAllProcesses
                0x00000000c00318c9                _memoryShowMemoryInfo
                0x00000000c0031ea7                _show_memory_structs
                0x00000000c0031f31                _testingPageAlloc
                0x00000000c003205f                _showFreepagedMemory
 .text          0x00000000c00320d5      0x4cf mmpool.o
                0x00000000c00320d5                _initializeFramesAlloc
                0x00000000c003216a                _page
                0x00000000c0032229                _newPage
                0x00000000c003232e                _firstSlotForAList
                0x00000000c0032395                _allocPages
 .text          0x00000000c00325a4     0x11bc pages.o
                0x00000000c00325a4                _initialize_frame_table
                0x00000000c003267e                _get_new_frame
                0x00000000c00326fb                _get_table_pointer
                0x00000000c0032733                _clone_directory
                0x00000000c00327a0                _CloneKernelPageDirectory
                0x00000000c003280f                _CreatePageTable
                0x00000000c0032929                _x86_SetCR3
                0x00000000c0032950                _mapping_ahci1_device_address
                0x00000000c00329c5                _mapping_nic1_device_address
                0x00000000c0032a3a                _SetUpPaging
                0x00000000c00335b2                _pEmpty
                0x00000000c00335c1                _freePage
                0x00000000c00335f1                _notfreePage
                0x00000000c0033621                _virtual_to_physical
                0x00000000c0033697                _pages_calc_mem
 .text          0x00000000c0033760       0xbe preempt.o
                0x00000000c0033760                _preempt
 .text          0x00000000c003381e      0x15e priority.o
                0x00000000c003381e                _set_priority
                0x00000000c0033857                _KiSetPriority
                0x00000000c0033864                _KiIncreasePriority
                0x00000000c003386e                _find_higher_priority
                0x00000000c0033972                _KiFindHigherPriority
 .text          0x00000000c003397c      0x220 sched.o
                0x00000000c003397c                _pick_next_thread
                0x00000000c0033a87                _scheduler
                0x00000000c0033b4b                _scheduler_start
                0x00000000c0033b66                _scheduler_lock
                0x00000000c0033b76                _scheduler_unlock
                0x00000000c0033b86                _scheduler_get_status
                0x00000000c0033b90                _new_task_scheduler
                0x00000000c0033b96                _init_scheduler
 .text          0x00000000c0033b9c      0x8d6 schedi.o
                0x00000000c0033b9c                _do_waitpid
                0x00000000c0033c16                _wait_for_a_reason
                0x00000000c0033cb2                _block_for_a_reason
                0x00000000c0033d26                _wakeup_thread_reason
                0x00000000c0033e94                _wakeup_scan_thread_reason
                0x00000000c0033f1f                _KiScheduler
                0x00000000c0033fa1                _KiSelectNextThread
                0x00000000c0033fc5                _KiNewTaskScheduler
                0x00000000c0033fcb                _KiDispatchTask
                0x00000000c0033fd1                _KiSetCurrent
                0x00000000c0033fe8                _KiGetCurrent
                0x00000000c0033ff5                _KiGetCurrentTask
                0x00000000c0034002                _get_current
                0x00000000c003400c                _get_current_task
                0x00000000c0034016                _set_current
                0x00000000c0034042                _do_thread_initialized
                0x00000000c0034079                _do_thread_standby
                0x00000000c00340b0                _do_thread_zombie
                0x00000000c00340f0                _do_thread_dead
                0x00000000c0034127                _do_thread_ready
                0x00000000c003415e                _do_thread_running
                0x00000000c00341ad                _do_thread_waiting
                0x00000000c00341e4                _do_thread_blocked
                0x00000000c003421b                _yield
                0x00000000c003426a                _wakeup_thread
                0x00000000c00342c3                _SelectNextThread
                0x00000000c0034379                _check_for_standby
                0x00000000c0034403                _check_quantum
 .text          0x00000000c0034472      0x4a2 create.o
                0x00000000c0034472                _createCreateInitThread
 .text          0x00000000c0034914      0x30b mk.o
                0x00000000c0034914                _jobcontrol
                0x00000000c0034a1c                _jobcheck
                0x00000000c0034aec                _microkernelTestLimit
                0x00000000c0034af2                _init_microkernel
 .text          0x00000000c0034c1f      0x449 request.o
                0x00000000c0034c1f                _KiRequest
                0x00000000c0034c53                _request
                0x00000000c0034e6a                _create_request
                0x00000000c0034f11                _clear_request
                0x00000000c0034f99                _do_request_12
 .text          0x00000000c0035068       0x33 panic.o
                0x00000000c0035068                _panic
 .text          0x00000000c003509b       0x13 reboot.o
                0x00000000c003509b                _reboot
 .text          0x00000000c00350ae      0x55c sys.o
                0x00000000c00350ae                _sys_serial_debug_printk
                0x00000000c00350c9                _sys_ioctl
                0x00000000c0035154                _sys_fcntl
                0x00000000c003517d                _sys_open
                0x00000000c003520d                _sys_close
                0x00000000c0035288                _sys_read
                0x00000000c0035343                _sys_write
                0x00000000c003541d                _sys_create_process
                0x00000000c003544b                _sys_getpid
                0x00000000c0035455                _sys_getppid
                0x00000000c00354bd                _sys_fork
                0x00000000c00354ca                _sys_exit_process
                0x00000000c00354ec                _sys_create_thread
                0x00000000c0035514                _sys_exit_thread
                0x00000000c0035533                _sys_dead_thread_collector
                0x00000000c0035541                _sys_vsync
                0x00000000c003554f                _sys_showkernelinfo
                0x00000000c003555d                _sys_showpciinfo
                0x00000000c003556a                _sys_reboot
                0x00000000c0035578                _sys_shutdown
                0x00000000c0035586                _sys_get_file_size
                0x00000000c00355bd                _sys_show_system_info
 .text          0x00000000c003560a        0x0 sysio.o
 .text          0x00000000c003560a        0x0 syslib.o
 .text          0x00000000c003560a        0x0 sysmk.o
 .text          0x00000000c003560a       0x16 syssm.o
                0x00000000c003560a                _syssm_get_system_metrics
                0x00000000c0035620                _code_end = .
                0x00000000c0036000                . = ALIGN (0x1000)
 *fill*         0x00000000c0035620      0x9e0 

.iplt           0x00000000c0036000        0x0
 .iplt          0x00000000c0036000        0x0 boot.o

.rodata         0x00000000c0036000     0xc000
                0x00000000c0036000                _rodata_begin = .
 *(.rdata)
 *(.rodata)
 .rodata        0x00000000c0036000      0x324 main.o
 .rodata        0x00000000c0036324      0x365 x86main.o
 *fill*         0x00000000c0036689        0x3 
 .rodata        0x00000000c003668c      0x445 socket.o
 *fill*         0x00000000c0036ad1        0xf 
 .rodata        0x00000000c0036ae0      0x120 ctype.o
                0x00000000c0036b00                __ctype
 .rodata        0x00000000c0036c00      0x308 kstdio.o
 .rodata        0x00000000c0036f08        0x7 stdlib.o
 .rodata        0x00000000c0036f0f        0x7 string.o
 .rodata        0x00000000c0036f16       0x95 unistd.o
 *fill*         0x00000000c0036fab        0x1 
 .rodata        0x00000000c0036fac      0x110 devmgr.o
 .rodata        0x00000000c00370bc      0x4e4 gde_serv.o
 .rodata        0x00000000c00375a0      0x10a debug.o
 *fill*         0x00000000c00376aa        0x2 
 .rodata        0x00000000c00376ac      0x3e2 storage.o
 .rodata        0x00000000c0037a8e        0x7 object.o
 *fill*         0x00000000c0037a95        0x3 
 .rodata        0x00000000c0037a98      0x16b runtime.o
 *fill*         0x00000000c0037c03        0x1 
 .rodata        0x00000000c0037c04       0x91 abort.o
 *fill*         0x00000000c0037c95        0x3 
 .rodata        0x00000000c0037c98      0x1f4 info.o
 .rodata        0x00000000c0037e8c        0x7 io.o
 .rodata        0x00000000c0037e93        0x7 modules.o
 .rodata        0x00000000c0037e9a        0x7 signal.o
 .rodata        0x00000000c0037ea1        0x7 sm.o
 .rodata        0x00000000c0037ea8      0x6db init.o
 *fill*         0x00000000c0038583        0x1 
 .rodata        0x00000000c0038584      0x58b system.o
 *fill*         0x00000000c0038b0f        0x1 
 .rodata        0x00000000c0038b10       0x43 execve.o
 .rodata        0x00000000c0038b53        0x7 cpuamd.o
 .rodata        0x00000000c0038b5a        0x7 portsx86.o
 .rodata        0x00000000c0038b61        0x7 syscall.o
 .rodata        0x00000000c0038b68      0x294 x86.o
 .rodata        0x00000000c0038dfc       0x57 detect.o
 *fill*         0x00000000c0038e53        0x1 
 .rodata        0x00000000c0038e54       0xdb hal.o
 *fill*         0x00000000c0038f2f        0x1 
 .rodata        0x00000000c0038f30      0x1d1 ahci.o
 *fill*         0x00000000c0039101        0x3 
 .rodata        0x00000000c0039104      0x26f ata.o
 .rodata        0x00000000c0039373        0x7 atadma.o
 .rodata        0x00000000c003937a       0x1c atainit.o
 .rodata        0x00000000c0039396        0x7 atairq.o
 *fill*         0x00000000c003939d        0x3 
 .rodata        0x00000000c00393a0      0x321 atapci.o
 .rodata        0x00000000c00396c1       0x39 hdd.o
 .rodata        0x00000000c00396fa        0x7 channel.o
 *fill*         0x00000000c0039701        0x3 
 .rodata        0x00000000c0039704      0x5bd network.o
 *fill*         0x00000000c0039cc1        0x3 
 .rodata        0x00000000c0039cc4      0x2b5 nicintel.o
 *fill*         0x00000000c0039f79        0x3 
 .rodata        0x00000000c0039f7c     0x1742 pci.o
 *fill*         0x00000000c003b6be        0x2 
 .rodata        0x00000000c003b6c0      0x22a pciinfo.o
 .rodata        0x00000000c003b8ea       0x52 pciscan.o
 .rodata        0x00000000c003b93c      0x2ea tty.o
 .rodata        0x00000000c003bc26       0xd0 pty.o
 *fill*         0x00000000c003bcf6        0x2 
 .rodata        0x00000000c003bcf8       0x69 vt.o
 .rodata        0x00000000c003bd61       0x24 usb.o
 *fill*         0x00000000c003bd85        0x3 
 .rodata        0x00000000c003bd88       0x2a video.o
 .rodata        0x00000000c003bdb2        0x7 vsync.o
 .rodata        0x00000000c003bdb9       0x13 screen.o
 .rodata        0x00000000c003bdcc      0x248 xproc.o
 .rodata        0x00000000c003c014       0xc4 i8042.o
 .rodata        0x00000000c003c0d8       0xb8 keyboard.o
 .rodata        0x00000000c003c190        0x7 mouse.o
 *fill*         0x00000000c003c197        0x1 
 .rodata        0x00000000c003c198      0x4b7 ps2kbd.o
 *fill*         0x00000000c003c64f        0x1 
 .rodata        0x00000000c003c650      0x1d0 ps2mouse.o
 .rodata        0x00000000c003c820       0x2f ldisc.o
 .rodata        0x00000000c003c84f        0x7 apic.o
 .rodata        0x00000000c003c856        0x7 pic.o
 .rodata        0x00000000c003c85d       0x61 rtc.o
 .rodata        0x00000000c003c8be        0x7 serial.o
 *fill*         0x00000000c003c8c5        0x3 
 .rodata        0x00000000c003c8c8      0x103 pit.o
 *fill*         0x00000000c003c9cb        0x1 
 .rodata        0x00000000c003c9cc      0x11e cf.o
 .rodata        0x00000000c003caea        0x7 format.o
 .rodata        0x00000000c003caf1        0x7 pipe.o
 .rodata        0x00000000c003caf8      0x7f1 fs.o
 *fill*         0x00000000c003d2e9        0x3 
 .rodata        0x00000000c003d2ec      0x1ae read.o
 *fill*         0x00000000c003d49a        0x2 
 .rodata        0x00000000c003d49c       0x8b search.o
 *fill*         0x00000000c003d527        0x1 
 .rodata        0x00000000c003d528      0x160 write.o
 .rodata        0x00000000c003d688      0x2b5 cedge.o
 .rodata        0x00000000c003d93d        0x7 bg.o
 .rodata        0x00000000c003d944       0x3d bmp.o
 *fill*         0x00000000c003d981        0x3 
 .rodata        0x00000000c003d984       0x6a button.o
 .rodata        0x00000000c003d9ee        0x7 char.o
 *fill*         0x00000000c003d9f5        0x3 
 .rodata        0x00000000c003d9f8      0x145 createw.o
 .rodata        0x00000000c003db3d       0x21 dtext.o
 .rodata        0x00000000c003db5e       0x3d font.o
 *fill*         0x00000000c003db9b        0x1 
 .rodata        0x00000000c003db9c      0x105 grid.o
 .rodata        0x00000000c003dca1        0x7 line.o
 .rodata        0x00000000c003dca8      0x260 menu.o
 .rodata        0x00000000c003df08      0x111 menubar.o
 .rodata        0x00000000c003e019       0x25 pixel.o
 *fill*         0x00000000c003e03e        0x2 
 .rodata        0x00000000c003e040       0xc9 rect.o
 *fill*         0x00000000c003e109        0x3 
 .rodata        0x00000000c003e10c       0xd4 sbar.o
 .rodata        0x00000000c003e1e0       0x9c toolbar.o
 .rodata        0x00000000c003e27c      0x62b wm.o
 .rodata        0x00000000c003e8a7       0x23 logoff.o
 *fill*         0x00000000c003e8ca        0x2 
 .rodata        0x00000000c003e8cc      0x253 logon.o
 .rodata        0x00000000c003eb1f        0x7 input.o
 .rodata        0x00000000c003eb26        0x7 terminal.o
 .rodata        0x00000000c003eb2d       0x3c desktop.o
 .rodata        0x00000000c003eb69       0x51 room.o
 *fill*         0x00000000c003ebba        0x2 
 .rodata        0x00000000c003ebbc      0x118 userenv.o
 .rodata        0x00000000c003ecd4       0xb6 usession.o
 *fill*         0x00000000c003ed8a        0x2 
 .rodata        0x00000000c003ed8c      0x23c kgwm.o
 .rodata        0x00000000c003efc8      0x104 kgws.o
 .rodata        0x00000000c003f0cc      0x10c vfs.o
 .rodata        0x00000000c003f1d8      0x11a x86cont.o
 *fill*         0x00000000c003f2f2        0x2 
 .rodata        0x00000000c003f2f4      0x195 x86fault.o
 *fill*         0x00000000c003f489        0x3 
 .rodata        0x00000000c003f48c       0xa1 x86start.o
 *fill*         0x00000000c003f52d        0x3 
 .rodata        0x00000000c003f530      0x150 dispatch.o
 .rodata        0x00000000c003f680        0x7 pheap.o
 *fill*         0x00000000c003f687        0x1 
 .rodata        0x00000000c003f688      0x73f process.o
 *fill*         0x00000000c003fdc7        0x1 
 .rodata        0x00000000c003fdc8      0x2e2 clone.o
 *fill*         0x00000000c00400aa        0x2 
 .rodata        0x00000000c00400ac      0x179 queue.o
 *fill*         0x00000000c0040225        0x3 
 .rodata        0x00000000c0040228       0xf2 spawn.o
 .rodata        0x00000000c004031a        0x7 tasks.o
 .rodata        0x00000000c0040321        0x7 theap.o
 .rodata        0x00000000c0040328      0x2b6 thread.o
 *fill*         0x00000000c00405de        0x2 
 .rodata        0x00000000c00405e0      0x443 threadi.o
 *fill*         0x00000000c0040a23        0x1 
 .rodata        0x00000000c0040a24      0x216 ts.o
 .rodata        0x00000000c0040c3a        0x7 tstack.o
 .rodata        0x00000000c0040c41        0x7 callout.o
 .rodata        0x00000000c0040c48      0x144 ipc.o
 .rodata        0x00000000c0040d8c       0x49 ipccore.o
 .rodata        0x00000000c0040dd5        0x7 sem.o
 .rodata        0x00000000c0040ddc      0x3bf memory.o
 *fill*         0x00000000c004119b        0x1 
 .rodata        0x00000000c004119c      0x53a mminfo.o
 *fill*         0x00000000c00416d6        0x2 
 .rodata        0x00000000c00416d8      0x108 mmpool.o
 .rodata        0x00000000c00417e0      0x223 pages.o
 .rodata        0x00000000c0041a03        0x7 preempt.o
 .rodata        0x00000000c0041a0a        0x7 priority.o
 *fill*         0x00000000c0041a11        0x3 
 .rodata        0x00000000c0041a14       0x4b sched.o
 *fill*         0x00000000c0041a5f        0x1 
 .rodata        0x00000000c0041a60      0x118 schedi.o
 .rodata        0x00000000c0041b78       0x85 create.o
 *fill*         0x00000000c0041bfd        0x3 
 .rodata        0x00000000c0041c00       0x5c mk.o
 .rodata        0x00000000c0041c5c      0x14c request.o
 .rodata        0x00000000c0041da8       0x1c panic.o
 .rodata        0x00000000c0041dc4        0x7 reboot.o
 *fill*         0x00000000c0041dcb        0x1 
 .rodata        0x00000000c0041dcc       0x88 sys.o
 .rodata        0x00000000c0041e54        0x7 sysio.o
 .rodata        0x00000000c0041e5b        0x7 syslib.o
 .rodata        0x00000000c0041e62        0x7 sysmk.o
 .rodata        0x00000000c0041e69        0x7 syssm.o
                0x00000000c0041e70                _rodata_end = .
                0x00000000c0042000                . = ALIGN (0x1000)
 *fill*         0x00000000c0041e70      0x190 

.eh_frame       0x00000000c0042000     0x8ec0
 .eh_frame      0x00000000c0042000       0x38 main.o
 .eh_frame      0x00000000c0042038       0x84 x86main.o
                                         0x9c (size before relaxing)
 .eh_frame      0x00000000c00420bc      0x1e0 socket.o
                                        0x1f8 (size before relaxing)
 .eh_frame      0x00000000c004229c      0x474 kstdio.o
                                        0x48c (size before relaxing)
 .eh_frame      0x00000000c0042710       0x80 stdlib.o
                                         0x98 (size before relaxing)
 .eh_frame      0x00000000c0042790      0x200 string.o
                                        0x218 (size before relaxing)
 .eh_frame      0x00000000c0042990       0xc0 unistd.o
                                         0xd8 (size before relaxing)
 .eh_frame      0x00000000c0042a50       0x80 devmgr.o
                                         0x98 (size before relaxing)
 .eh_frame      0x00000000c0042ad0       0xac gde_serv.o
                                         0xc4 (size before relaxing)
 .eh_frame      0x00000000c0042b7c       0xc0 debug.o
                                         0xd8 (size before relaxing)
 .eh_frame      0x00000000c0042c3c      0x1e4 storage.o
                                        0x1fc (size before relaxing)
 .eh_frame      0x00000000c0042e20       0x20 object.o
                                         0x38 (size before relaxing)
 .eh_frame      0x00000000c0042e40       0x40 runtime.o
                                         0x58 (size before relaxing)
 .eh_frame      0x00000000c0042e80       0x3c abort.o
                                         0x54 (size before relaxing)
 .eh_frame      0x00000000c0042ebc       0x70 info.o
                                         0x88 (size before relaxing)
 .eh_frame      0x00000000c0042f2c       0x40 io.o
                                         0x58 (size before relaxing)
 .eh_frame      0x00000000c0042f6c       0x40 signal.o
                                         0x58 (size before relaxing)
 .eh_frame      0x00000000c0042fac       0x20 sm.o
                                         0x38 (size before relaxing)
 .eh_frame      0x00000000c0042fcc       0xa0 init.o
                                         0xb8 (size before relaxing)
 .eh_frame      0x00000000c004306c      0x380 system.o
                                        0x398 (size before relaxing)
 .eh_frame      0x00000000c00433ec       0x40 execve.o
                                         0x58 (size before relaxing)
 .eh_frame      0x00000000c004342c       0x40 cpuamd.o
                                         0x58 (size before relaxing)
 .eh_frame      0x00000000c004346c      0x140 portsx86.o
                                        0x158 (size before relaxing)
 .eh_frame      0x00000000c00435ac       0x44 syscall.o
                                         0x5c (size before relaxing)
 .eh_frame      0x00000000c00435f0      0x270 x86.o
                                        0x288 (size before relaxing)
 .eh_frame      0x00000000c0043860       0xac detect.o
                                         0xc4 (size before relaxing)
 .eh_frame      0x00000000c004390c      0x30c hal.o
                                        0x324 (size before relaxing)
 .eh_frame      0x00000000c0043c18       0x80 ahci.o
                                         0x98 (size before relaxing)
 .eh_frame      0x00000000c0043c98      0x2b8 ata.o
                                        0x2d0 (size before relaxing)
 .eh_frame      0x00000000c0043f50       0x80 atadma.o
                                         0x98 (size before relaxing)
 .eh_frame      0x00000000c0043fd0       0x20 atainit.o
                                         0x38 (size before relaxing)
 .eh_frame      0x00000000c0043ff0       0xc0 atairq.o
                                         0xd8 (size before relaxing)
 .eh_frame      0x00000000c00440b0       0x84 atapci.o
                                         0x9c (size before relaxing)
 .eh_frame      0x00000000c0044134      0x148 hdd.o
                                        0x160 (size before relaxing)
 .eh_frame      0x00000000c004427c       0x80 channel.o
                                         0x98 (size before relaxing)
 .eh_frame      0x00000000c00442fc      0x218 network.o
                                        0x230 (size before relaxing)
 .eh_frame      0x00000000c0044514      0x188 nicintel.o
                                        0x1a0 (size before relaxing)
 .eh_frame      0x00000000c004469c      0x22c pci.o
                                        0x244 (size before relaxing)
 .eh_frame      0x00000000c00448c8       0x50 pciinfo.o
                                         0x68 (size before relaxing)
 .eh_frame      0x00000000c0044918       0x60 pciscan.o
                                         0x78 (size before relaxing)
 .eh_frame      0x00000000c0044978      0x2a4 tty.o
                                        0x2bc (size before relaxing)
 .eh_frame      0x00000000c0044c1c       0x80 pty.o
                                         0x98 (size before relaxing)
 .eh_frame      0x00000000c0044c9c       0xec vt.o
                                        0x104 (size before relaxing)
 .eh_frame      0x00000000c0044d88       0x40 usb.o
                                         0x58 (size before relaxing)
 .eh_frame      0x00000000c0044dc8       0xa0 video.o
                                         0xb8 (size before relaxing)
 .eh_frame      0x00000000c0044e68       0x40 vsync.o
                                         0x58 (size before relaxing)
 .eh_frame      0x00000000c0044ea8       0xc4 screen.o
                                         0xdc (size before relaxing)
 .eh_frame      0x00000000c0044f6c      0x204 xproc.o
                                        0x21c (size before relaxing)
 .eh_frame      0x00000000c0045170       0xc0 i8042.o
                                         0xd8 (size before relaxing)
 .eh_frame      0x00000000c0045230       0x60 keyboard.o
                                         0x78 (size before relaxing)
 .eh_frame      0x00000000c0045290       0x20 mouse.o
                                         0x38 (size before relaxing)
 .eh_frame      0x00000000c00452b0      0x320 ps2kbd.o
                                        0x338 (size before relaxing)
 .eh_frame      0x00000000c00455d0      0x280 ps2mouse.o
                                        0x298 (size before relaxing)
 .eh_frame      0x00000000c0045850       0x40 ldisc.o
                                         0x58 (size before relaxing)
 .eh_frame      0x00000000c0045890      0x124 rtc.o
                                        0x13c (size before relaxing)
 .eh_frame      0x00000000c00459b4       0xe0 serial.o
                                         0xf8 (size before relaxing)
 .eh_frame      0x00000000c0045a94      0x320 pit.o
                                        0x338 (size before relaxing)
 .eh_frame      0x00000000c0045db4       0x80 cf.o
                                         0x98 (size before relaxing)
 .eh_frame      0x00000000c0045e34       0x40 format.o
                                         0x58 (size before relaxing)
 .eh_frame      0x00000000c0045e74       0xc0 pipe.o
                                         0xd8 (size before relaxing)
 .eh_frame      0x00000000c0045f34      0x628 fs.o
                                        0x640 (size before relaxing)
 .eh_frame      0x00000000c004655c      0x160 read.o
                                        0x178 (size before relaxing)
 .eh_frame      0x00000000c00466bc       0xc0 search.o
                                         0xd8 (size before relaxing)
 .eh_frame      0x00000000c004677c       0xe0 write.o
                                         0xf8 (size before relaxing)
 .eh_frame      0x00000000c004685c      0x3dc cedge.o
                                        0x3f4 (size before relaxing)
 .eh_frame      0x00000000c0046c38       0xa0 bg.o
                                         0xb8 (size before relaxing)
 .eh_frame      0x00000000c0046cd8       0x80 bmp.o
                                         0x98 (size before relaxing)
 .eh_frame      0x00000000c0046d58       0xc8 button.o
                                         0xe0 (size before relaxing)
 .eh_frame      0x00000000c0046e20       0xe0 char.o
                                         0xf8 (size before relaxing)
 .eh_frame      0x00000000c0046f00       0xb0 createw.o
                                         0xc8 (size before relaxing)
 .eh_frame      0x00000000c0046fb0       0x40 dtext.o
                                         0x58 (size before relaxing)
 .eh_frame      0x00000000c0046ff0       0xe0 font.o
                                         0xf8 (size before relaxing)
 .eh_frame      0x00000000c00470d0       0x60 grid.o
                                         0x78 (size before relaxing)
 .eh_frame      0x00000000c0047130       0x40 line.o
                                         0x58 (size before relaxing)
 .eh_frame      0x00000000c0047170      0x140 menu.o
                                        0x158 (size before relaxing)
 .eh_frame      0x00000000c00472b0      0x114 menubar.o
                                        0x12c (size before relaxing)
 .eh_frame      0x00000000c00473c4       0xc0 pixel.o
                                         0xd8 (size before relaxing)
 .eh_frame      0x00000000c0047484      0x14c rect.o
                                        0x164 (size before relaxing)
 .eh_frame      0x00000000c00475d0       0x4c sbar.o
                                         0x64 (size before relaxing)
 .eh_frame      0x00000000c004761c       0x20 toolbar.o
                                         0x38 (size before relaxing)
 .eh_frame      0x00000000c004763c      0x85c wm.o
                                        0x874 (size before relaxing)
 .eh_frame      0x00000000c0047e98       0x40 logoff.o
                                         0x58 (size before relaxing)
 .eh_frame      0x00000000c0047ed8      0x220 logon.o
                                        0x238 (size before relaxing)
 .eh_frame      0x00000000c00480f8       0xa0 terminal.o
                                         0xb8 (size before relaxing)
 .eh_frame      0x00000000c0048198      0x260 desktop.o
                                        0x278 (size before relaxing)
 .eh_frame      0x00000000c00483f8       0xc0 room.o
                                         0xd8 (size before relaxing)
 .eh_frame      0x00000000c00484b8      0x1a0 userenv.o
                                        0x1b8 (size before relaxing)
 .eh_frame      0x00000000c0048658       0xa0 usession.o
                                         0xb8 (size before relaxing)
 .eh_frame      0x00000000c00486f8      0x520 kgwm.o
                                        0x538 (size before relaxing)
 .eh_frame      0x00000000c0048c18       0x60 kgws.o
                                         0x78 (size before relaxing)
 .eh_frame      0x00000000c0048c78       0x84 vfs.o
                                         0x9c (size before relaxing)
 .eh_frame      0x00000000c0048cfc      0x120 x86cont.o
                                        0x138 (size before relaxing)
 .eh_frame      0x00000000c0048e1c       0x60 x86fault.o
                                         0x78 (size before relaxing)
 .eh_frame      0x00000000c0048e7c       0xe0 x86start.o
                                         0xf8 (size before relaxing)
 .eh_frame      0x00000000c0048f5c      0x200 dispatch.o
                                        0x218 (size before relaxing)
 .eh_frame      0x00000000c004915c      0x384 process.o
                                        0x39c (size before relaxing)
 .eh_frame      0x00000000c00494e0       0x64 clone.o
                                         0x7c (size before relaxing)
 .eh_frame      0x00000000c0049544       0xe0 queue.o
                                         0xf8 (size before relaxing)
 .eh_frame      0x00000000c0049624       0x60 spawn.o
                                         0x78 (size before relaxing)
 .eh_frame      0x00000000c0049684       0x38 tasks.o
                                         0x50 (size before relaxing)
 .eh_frame      0x00000000c00496bc       0x20 theap.o
                                         0x38 (size before relaxing)
 .eh_frame      0x00000000c00496dc      0x20c thread.o
                                        0x224 (size before relaxing)
 .eh_frame      0x00000000c00498e8      0x418 threadi.o
                                        0x430 (size before relaxing)
 .eh_frame      0x00000000c0049d00       0xe4 ts.o
                                         0xfc (size before relaxing)
 .eh_frame      0x00000000c0049de4       0x20 tstack.o
                                         0x38 (size before relaxing)
 .eh_frame      0x00000000c0049e04       0x80 ipc.o
                                         0x98 (size before relaxing)
 .eh_frame      0x00000000c0049e84       0x80 ipccore.o
                                         0x98 (size before relaxing)
 .eh_frame      0x00000000c0049f04      0x120 sem.o
                                        0x138 (size before relaxing)
 .eh_frame      0x00000000c004a024      0x1a0 memory.o
                                        0x1b8 (size before relaxing)
 .eh_frame      0x00000000c004a1c4       0xd4 mminfo.o
                                         0xec (size before relaxing)
 .eh_frame      0x00000000c004a298       0xa0 mmpool.o
                                         0xb8 (size before relaxing)
 .eh_frame      0x00000000c004a338      0x1e0 pages.o
                                        0x1f8 (size before relaxing)
 .eh_frame      0x00000000c004a518       0x20 preempt.o
                                         0x38 (size before relaxing)
 .eh_frame      0x00000000c004a538       0xa0 priority.o
                                         0xb8 (size before relaxing)
 .eh_frame      0x00000000c004a5d8      0x100 sched.o
                                        0x118 (size before relaxing)
 .eh_frame      0x00000000c004a6d8      0x380 schedi.o
                                        0x398 (size before relaxing)
 .eh_frame      0x00000000c004aa58       0x24 create.o
                                         0x3c (size before relaxing)
 .eh_frame      0x00000000c004aa7c       0x80 mk.o
                                         0x98 (size before relaxing)
 .eh_frame      0x00000000c004aafc       0xa0 request.o
                                         0xb8 (size before relaxing)
 .eh_frame      0x00000000c004ab9c       0x24 panic.o
                                         0x3c (size before relaxing)
 .eh_frame      0x00000000c004abc0       0x20 reboot.o
                                         0x38 (size before relaxing)
 .eh_frame      0x00000000c004abe0      0x2c0 sys.o
                                        0x2d8 (size before relaxing)
 .eh_frame      0x00000000c004aea0       0x20 syssm.o
                                         0x38 (size before relaxing)

.rel.dyn        0x00000000c004aec0        0x0
 .rel.got       0x00000000c004aec0        0x0 boot.o
 .rel.iplt      0x00000000c004aec0        0x0 boot.o
 .rel.head_x86  0x00000000c004aec0        0x0 boot.o
 .rel.text      0x00000000c004aec0        0x0 boot.o

.data           0x00000000c004aec0    0x12140
                0x00000000c004aec0                _data_begin = .
 *(.data)
 .data          0x00000000c004aec0        0x2 boot.o
                0x00000000c004aec0                _data_start
 *fill*         0x00000000c004aec2       0x1e 
 .data          0x00000000c004aee0      0x1ec main.o
 *fill*         0x00000000c004b0cc       0x14 
 .data          0x00000000c004b0e0      0x1ec x86main.o
 *fill*         0x00000000c004b2cc       0x14 
 .data          0x00000000c004b2e0      0x1ec socket.o
 *fill*         0x00000000c004b4cc       0x14 
 .data          0x00000000c004b4e0      0x1ec ctype.o
 *fill*         0x00000000c004b6cc       0x14 
 .data          0x00000000c004b6e0      0x1ec kstdio.o
 *fill*         0x00000000c004b8cc       0x14 
 .data          0x00000000c004b8e0      0x1f0 stdlib.o
 *fill*         0x00000000c004bad0       0x10 
 .data          0x00000000c004bae0      0x1ec string.o
 *fill*         0x00000000c004bccc       0x14 
 .data          0x00000000c004bce0      0x1ec unistd.o
 *fill*         0x00000000c004becc       0x14 
 .data          0x00000000c004bee0      0x1ec devmgr.o
 *fill*         0x00000000c004c0cc       0x14 
 .data          0x00000000c004c0e0      0x1ec gde_serv.o
 *fill*         0x00000000c004c2cc       0x14 
 .data          0x00000000c004c2e0      0x1ec debug.o
 *fill*         0x00000000c004c4cc       0x14 
 .data          0x00000000c004c4e0      0x1ec storage.o
 .data          0x00000000c004c6cc        0x0 install.o
 *fill*         0x00000000c004c6cc       0x14 
 .data          0x00000000c004c6e0      0x1ec object.o
 *fill*         0x00000000c004c8cc       0x14 
 .data          0x00000000c004c8e0      0x1ec runtime.o
 *fill*         0x00000000c004cacc       0x14 
 .data          0x00000000c004cae0      0x1ec abort.o
 *fill*         0x00000000c004cccc       0x14 
 .data          0x00000000c004cce0      0x1ec info.o
 *fill*         0x00000000c004cecc       0x14 
 .data          0x00000000c004cee0      0x1ec io.o
 *fill*         0x00000000c004d0cc       0x14 
 .data          0x00000000c004d0e0      0x1ec modules.o
 *fill*         0x00000000c004d2cc       0x14 
 .data          0x00000000c004d2e0      0x1ec signal.o
 *fill*         0x00000000c004d4cc       0x14 
 .data          0x00000000c004d4e0      0x1ec sm.o
 *fill*         0x00000000c004d6cc       0x14 
 .data          0x00000000c004d6e0      0x1ec init.o
 *fill*         0x00000000c004d8cc       0x14 
 .data          0x00000000c004d8e0      0x244 system.o
 *fill*         0x00000000c004db24       0x1c 
 .data          0x00000000c004db40      0x1ec execve.o
 *fill*         0x00000000c004dd2c       0x14 
 .data          0x00000000c004dd40      0x1ec cpuamd.o
 *fill*         0x00000000c004df2c       0x14 
 .data          0x00000000c004df40      0x1ec portsx86.o
 *fill*         0x00000000c004e12c       0x14 
 .data          0x00000000c004e140      0x1ec syscall.o
 *fill*         0x00000000c004e32c       0x14 
 .data          0x00000000c004e340      0x1ec x86.o
 *fill*         0x00000000c004e52c       0x14 
 .data          0x00000000c004e540      0x1ec detect.o
 *fill*         0x00000000c004e72c       0x14 
 .data          0x00000000c004e740      0x1ec hal.o
 *fill*         0x00000000c004e92c       0x14 
 .data          0x00000000c004e940      0x1ec ahci.o
 *fill*         0x00000000c004eb2c       0x14 
 .data          0x00000000c004eb40      0x1ec ata.o
 *fill*         0x00000000c004ed2c       0x14 
 .data          0x00000000c004ed40      0x1ec atadma.o
 *fill*         0x00000000c004ef2c       0x14 
 .data          0x00000000c004ef40      0x1ec atainit.o
 *fill*         0x00000000c004f12c       0x14 
 .data          0x00000000c004f140      0x1ec atairq.o
 *fill*         0x00000000c004f32c       0x14 
 .data          0x00000000c004f340      0x600 atapci.o
                0x00000000c004f540                _pci_classes
 .data          0x00000000c004f940      0x1ec hdd.o
 *fill*         0x00000000c004fb2c       0x14 
 .data          0x00000000c004fb40      0x1ec channel.o
 *fill*         0x00000000c004fd2c       0x14 
 .data          0x00000000c004fd40      0x1ec network.o
 *fill*         0x00000000c004ff2c       0x14 
 .data          0x00000000c004ff40      0x1ec nicintel.o
 *fill*         0x00000000c005012c       0x14 
 .data          0x00000000c0050140      0xe64 pci.o
                0x00000000c0050340                _pci_classes2
                0x00000000c0050740                _pci_classnames
 *fill*         0x00000000c0050fa4       0x1c 
 .data          0x00000000c0050fc0      0x24c pciinfo.o
 *fill*         0x00000000c005120c       0x14 
 .data          0x00000000c0051220      0x1ec pciscan.o
 *fill*         0x00000000c005140c       0x14 
 .data          0x00000000c0051420      0x1ec tty.o
 *fill*         0x00000000c005160c       0x14 
 .data          0x00000000c0051620      0x1ec pty.o
 *fill*         0x00000000c005180c       0x14 
 .data          0x00000000c0051820      0x1ec vt.o
 *fill*         0x00000000c0051a0c       0x14 
 .data          0x00000000c0051a20      0x1ec usb.o
 *fill*         0x00000000c0051c0c       0x14 
 .data          0x00000000c0051c20      0x1ec video.o
 *fill*         0x00000000c0051e0c       0x14 
 .data          0x00000000c0051e20      0x1ec vsync.o
 *fill*         0x00000000c005200c       0x14 
 .data          0x00000000c0052020      0x1ec screen.o
 *fill*         0x00000000c005220c       0x14 
 .data          0x00000000c0052220      0x1ec xproc.o
 *fill*         0x00000000c005240c       0x14 
 .data          0x00000000c0052420      0x1ec i8042.o
 *fill*         0x00000000c005260c       0x14 
 .data          0x00000000c0052620      0x1ec keyboard.o
 *fill*         0x00000000c005280c       0x14 
 .data          0x00000000c0052820      0x1ec mouse.o
 *fill*         0x00000000c0052a0c       0x14 
 .data          0x00000000c0052a20      0x1ec ps2kbd.o
 *fill*         0x00000000c0052c0c       0x14 
 .data          0x00000000c0052c20      0x1ec ps2mouse.o
 *fill*         0x00000000c0052e0c       0x14 
 .data          0x00000000c0052e20      0x1ec ldisc.o
 *fill*         0x00000000c005300c       0x14 
 .data          0x00000000c0053020      0x1ec apic.o
 *fill*         0x00000000c005320c       0x14 
 .data          0x00000000c0053220      0x1ec pic.o
 *fill*         0x00000000c005340c       0x14 
 .data          0x00000000c0053420      0x1ec rtc.o
 *fill*         0x00000000c005360c       0x14 
 .data          0x00000000c0053620      0x1ec serial.o
 *fill*         0x00000000c005380c       0x14 
 .data          0x00000000c0053820      0x1ec pit.o
 *fill*         0x00000000c0053a0c       0x14 
 .data          0x00000000c0053a20      0x1ec cf.o
 *fill*         0x00000000c0053c0c       0x14 
 .data          0x00000000c0053c20      0x1ec format.o
 *fill*         0x00000000c0053e0c       0x14 
 .data          0x00000000c0053e20      0x1ec pipe.o
 *fill*         0x00000000c005400c       0x14 
 .data          0x00000000c0054020      0x1ec fs.o
 *fill*         0x00000000c005420c       0x14 
 .data          0x00000000c0054220      0x1ec read.o
 *fill*         0x00000000c005440c       0x14 
 .data          0x00000000c0054420      0x1ec search.o
 *fill*         0x00000000c005460c       0x14 
 .data          0x00000000c0054620      0x1ec write.o
 *fill*         0x00000000c005480c       0x14 
 .data          0x00000000c0054820      0x1ed cedge.o
 *fill*         0x00000000c0054a0d       0x13 
 .data          0x00000000c0054a20      0x1ec bg.o
 *fill*         0x00000000c0054c0c       0x14 
 .data          0x00000000c0054c20      0x1ec bmp.o
 *fill*         0x00000000c0054e0c       0x14 
 .data          0x00000000c0054e20      0x1ec button.o
 *fill*         0x00000000c005500c       0x14 
 .data          0x00000000c0055020      0x1ec char.o
 *fill*         0x00000000c005520c       0x14 
 .data          0x00000000c0055220      0x1ec createw.o
 *fill*         0x00000000c005540c       0x14 
 .data          0x00000000c0055420      0x1ec dtext.o
 *fill*         0x00000000c005560c       0x14 
 .data          0x00000000c0055620      0x1ec font.o
 *fill*         0x00000000c005580c       0x14 
 .data          0x00000000c0055820      0x1ec grid.o
 *fill*         0x00000000c0055a0c       0x14 
 .data          0x00000000c0055a20      0x1ec line.o
 *fill*         0x00000000c0055c0c       0x14 
 .data          0x00000000c0055c20      0x1ec menu.o
 *fill*         0x00000000c0055e0c       0x14 
 .data          0x00000000c0055e20      0x1ec menubar.o
 *fill*         0x00000000c005600c       0x14 
 .data          0x00000000c0056020      0x1ec pixel.o
 *fill*         0x00000000c005620c       0x14 
 .data          0x00000000c0056220      0x1ec rect.o
 *fill*         0x00000000c005640c       0x14 
 .data          0x00000000c0056420      0x1ec sbar.o
 *fill*         0x00000000c005660c       0x14 
 .data          0x00000000c0056620      0x1ec toolbar.o
 *fill*         0x00000000c005680c       0x14 
 .data          0x00000000c0056820      0x1ec wm.o
 *fill*         0x00000000c0056a0c       0x14 
 .data          0x00000000c0056a20      0x1ec logoff.o
 *fill*         0x00000000c0056c0c       0x14 
 .data          0x00000000c0056c20      0x1ec logon.o
 *fill*         0x00000000c0056e0c       0x14 
 .data          0x00000000c0056e20      0x1ec input.o
 .data          0x00000000c005700c        0x0 output.o
 *fill*         0x00000000c005700c       0x14 
 .data          0x00000000c0057020      0x1ec terminal.o
 *fill*         0x00000000c005720c       0x14 
 .data          0x00000000c0057220      0x1ec desktop.o
 *fill*         0x00000000c005740c       0x14 
 .data          0x00000000c0057420      0x1ec room.o
 *fill*         0x00000000c005760c       0x14 
 .data          0x00000000c0057620      0x1ec userenv.o
 *fill*         0x00000000c005780c       0x14 
 .data          0x00000000c0057820      0x1ec usession.o
 *fill*         0x00000000c0057a0c       0x14 
 .data          0x00000000c0057a20      0x1ec kgwm.o
 *fill*         0x00000000c0057c0c       0x14 
 .data          0x00000000c0057c20      0x1ec kgws.o
 *fill*         0x00000000c0057e0c       0x14 
 .data          0x00000000c0057e20      0x1ec vfs.o
 *fill*         0x00000000c005800c       0x14 
 .data          0x00000000c0058020      0x1ec x86cont.o
 *fill*         0x00000000c005820c       0x14 
 .data          0x00000000c0058220      0x1ec x86fault.o
 *fill*         0x00000000c005840c       0x14 
 .data          0x00000000c0058420      0x1ec x86start.o
 *fill*         0x00000000c005860c       0x14 
 .data          0x00000000c0058620      0x1ec dispatch.o
 *fill*         0x00000000c005880c       0x14 
 .data          0x00000000c0058820      0x1ec pheap.o
 *fill*         0x00000000c0058a0c       0x14 
 .data          0x00000000c0058a20      0x1ec process.o
 *fill*         0x00000000c0058c0c       0x14 
 .data          0x00000000c0058c20      0x1ec clone.o
 *fill*         0x00000000c0058e0c       0x14 
 .data          0x00000000c0058e20      0x1ec queue.o
 *fill*         0x00000000c005900c       0x14 
 .data          0x00000000c0059020      0x1ec spawn.o
 *fill*         0x00000000c005920c       0x14 
 .data          0x00000000c0059220      0x1ec tasks.o
 *fill*         0x00000000c005940c       0x14 
 .data          0x00000000c0059420      0x1ec theap.o
 *fill*         0x00000000c005960c       0x14 
 .data          0x00000000c0059620      0x1ec thread.o
 *fill*         0x00000000c005980c       0x14 
 .data          0x00000000c0059820      0x1ec threadi.o
 *fill*         0x00000000c0059a0c       0x14 
 .data          0x00000000c0059a20      0x1ec ts.o
 *fill*         0x00000000c0059c0c       0x14 
 .data          0x00000000c0059c20      0x1ec tstack.o
 *fill*         0x00000000c0059e0c       0x14 
 .data          0x00000000c0059e20      0x1ec callout.o
 .data          0x00000000c005a00c        0x0 callfar.o
 *fill*         0x00000000c005a00c       0x14 
 .data          0x00000000c005a020      0x1ec ipc.o
 *fill*         0x00000000c005a20c       0x14 
 .data          0x00000000c005a220      0x1ec ipccore.o
 *fill*         0x00000000c005a40c       0x14 
 .data          0x00000000c005a420      0x1ec sem.o
 *fill*         0x00000000c005a60c       0x14 
 .data          0x00000000c005a620      0x1ec memory.o
 *fill*         0x00000000c005a80c       0x14 
 .data          0x00000000c005a820      0x1ec mminfo.o
 *fill*         0x00000000c005aa0c       0x14 
 .data          0x00000000c005aa20      0x1ec mmpool.o
 *fill*         0x00000000c005ac0c       0x14 
 .data          0x00000000c005ac20      0x1f0 pages.o
                0x00000000c005ae0c                _table_pointer_heap_base
 *fill*         0x00000000c005ae10       0x10 
 .data          0x00000000c005ae20      0x1ec preempt.o
 *fill*         0x00000000c005b00c       0x14 
 .data          0x00000000c005b020      0x1ec priority.o
 *fill*         0x00000000c005b20c       0x14 
 .data          0x00000000c005b220      0x1ec sched.o
 *fill*         0x00000000c005b40c       0x14 
 .data          0x00000000c005b420      0x1ec schedi.o
 *fill*         0x00000000c005b60c       0x14 
 .data          0x00000000c005b620      0x1ec create.o
 *fill*         0x00000000c005b80c       0x14 
 .data          0x00000000c005b820      0x1ec mk.o
 *fill*         0x00000000c005ba0c       0x14 
 .data          0x00000000c005ba20      0x1ec request.o
 *fill*         0x00000000c005bc0c       0x14 
 .data          0x00000000c005bc20      0x1ec panic.o
 *fill*         0x00000000c005be0c       0x14 
 .data          0x00000000c005be20      0x1ec reboot.o
 *fill*         0x00000000c005c00c       0x14 
 .data          0x00000000c005c020      0x1ec sys.o
 *fill*         0x00000000c005c20c       0x14 
 .data          0x00000000c005c220      0x1ec sysio.o
 *fill*         0x00000000c005c40c       0x14 
 .data          0x00000000c005c420      0x1ec syslib.o
 *fill*         0x00000000c005c60c       0x14 
 .data          0x00000000c005c620      0x1ec sysmk.o
 *fill*         0x00000000c005c80c       0x14 
 .data          0x00000000c005c820      0x1ec syssm.o
                0x00000000c005ca0c                _data_end = .
                0x00000000c005d000                . = ALIGN (0x1000)
 *fill*         0x00000000c005ca0c      0x5f4 

.got            0x00000000c005d000        0x0
 .got           0x00000000c005d000        0x0 boot.o

.got.plt        0x00000000c005d000        0x0
 .got.plt       0x00000000c005d000        0x0 boot.o

.igot.plt       0x00000000c005d000        0x0
 .igot.plt      0x00000000c005d000        0x0 boot.o

.bss            0x00000000c005d000    0x66000
                0x00000000c005d000                _bss_begin = .
 *(COMMON)
 COMMON         0x00000000c005d000    0x53a24 main.o
                0x00000000c005d000                _framepoolBackBuffer3
                0x00000000c005d004                _guiMenu
                0x00000000c005d020                _usessionList
                0x00000000c005d060                _terminalOffsetMax
                0x00000000c005d064                _g_backbuffer_va
                0x00000000c005d068                _blSavedCylinders
                0x00000000c005d06c                _g_module_volume_initialized
                0x00000000c005d070                _server_stdio
                0x00000000c005d080                _menuList
                0x00000000c005d480                _Graphics
                0x00000000c005d4a0                _framepoolList
                0x00000000c005e4a0                _dispatcherType
                0x00000000c005e4a4                _pci_handler_address
                0x00000000c005e4a8                _mainButton3
                0x00000000c005e4ac                _zicaaaaadasf
                0x00000000c005e4b0                _Irq9
                0x00000000c005e4b4                _g_profiler_ints_irq13
                0x00000000c005e4b8                _g_frontbuffer_va
                0x00000000c005e4bc                _clientCW
                0x00000000c005e4c0                _userconfig_Status
                0x00000000c005e4e0                _prompt
                0x00000000c005e5e0                _MenuBar
                0x00000000c005e5e4                _semaforo_color
                0x00000000c005e5e8                _g_module_debug_initialized
                0x00000000c005e600                _threadList
                0x00000000c005f600                _MEDIUM_extraheap3_address
                0x00000000c005f604                _pci_device
                0x00000000c005f620                _Windows
                0x00000000c0060620                _g_module_disk_initialized
                0x00000000c0060624                _current_runlevel
                0x00000000c0060628                _terminalOffset
                0x00000000c006062c                _kernel_heap_end
                0x00000000c0060630                _MEDIUM_user_address
                0x00000000c0060634                _MEDIUM_extraheap1_address
                0x00000000c0060638                _scrolllock_status
                0x00000000c0060640                _screenGrid
                0x00000000c0060840                _MEDIUM_backbuffer_address
                0x00000000c0060844                _wait_queue
                0x00000000c0060848                _windowzoneStart
                0x00000000c006084c                _mm_used_extraheap1
                0x00000000c0060850                _partition
                0x00000000c0060854                _fatbits
                0x00000000c0060858                _g9x14fontAddress
                0x00000000c006085c                _framepoolBackBuffer2
                0x00000000c0060860                _CurrentChannel
                0x00000000c0060864                _task_switch_status
                0x00000000c0060868                _ata_record_dev
                0x00000000c006086c                _systemzoneEnd
                0x00000000c0060870                _lineOffsetMax
                0x00000000c0060874                _serverSP
                0x00000000c0060878                _LocalHostHTTPSocket
                0x00000000c006087c                _ioControl_mouse
                0x00000000c0060880                _GRID
                0x00000000c0060884                _cursorIconBuffer
                0x00000000c0060888                _preempted_task
                0x00000000c006088c                _ActiveWindow
                0x00000000c0060890                _mouse_buttom_3
                0x00000000c0060894                _current_screen
                0x00000000c0060898                _capslock_status
                0x00000000c006089c                _KernelArgs
                0x00000000c00608ac                _Irq5
                0x00000000c00608b0                _Irq13
                0x00000000c00608b4                _Irq2
                0x00000000c00608c0                _virtualconsoleList
                0x00000000c0060900                _pcideviceList
                0x00000000c0060980                _memorysizeAvailablePhysicalMemory
                0x00000000c0060984                _fullscreen_window
                0x00000000c00609a0                _xxx_gdt
                0x00000000c0060aa0                _g_navigationbar_height
                0x00000000c0060aa4                _keyboard_message_head
                0x00000000c0060aa8                _LARGE_kernel_base
                0x00000000c0060aac                _textcursorStatus
                0x00000000c0060ab0                _pmiMemoryInfo
                0x00000000c0060ab4                _mm_used_heappool
                0x00000000c0060ab8                _current_stdin
                0x00000000c0060abc                _SavedRect
                0x00000000c0060ac0                _current_volume_string
                0x00000000c0060ac4                _mouse_button_action
                0x00000000c0060ac8                _Irq15
                0x00000000c0060acc                _g_module_fs_initialized
                0x00000000c0060ad0                _bmp_change_color_flag
                0x00000000c0060ad4                _framepoolBackBuffer4
                0x00000000c0060ae0                _idleprocessorList
                0x00000000c0060b60                _g_driver_hdd_initialized
                0x00000000c0060b64                _g9x16fontAddress
                0x00000000c0060b68                _storage
                0x00000000c0060b6c                _systemzoneStart
                0x00000000c0060b70                _waiting_procs
                0x00000000c0060b74                _running_tasks
                0x00000000c0060b78                _g_extraheap1_size
                0x00000000c0060b7c                _g_device_screen_width
                0x00000000c0060b80                _InitThread
                0x00000000c0060b84                ___breaker_com2_initialized
                0x00000000c0060b88                _extra
                0x00000000c0060b8c                _g_profiler_ints_irq2
                0x00000000c0060ba0                _fsbFrames
                0x00000000c0061ba0                _CurrentTTY
                0x00000000c0061ba4                _g_user_space_framepool_index
                0x00000000c0061ba8                _Initialization
                0x00000000c0061bc0                _next_thread
                0x00000000c0061be0                _GUI_CONFIG
                0x00000000c0061c1c                _systemzoneSize
                0x00000000c0061c20                ___breaker_timer_initialized
                0x00000000c0061c24                _zorderCounter
                0x00000000c0061c28                _mmFramesSuperBlockTotalUsed
                0x00000000c0061c2c                _quantum
                0x00000000c0061c30                _stderr
                0x00000000c0061c34                _g_mainwindow_width
                0x00000000c0061c38                _cur_process
                0x00000000c0061c3c                _current_vc
                0x00000000c0061c40                _g_logged
                0x00000000c0061c44                _file_TaskMan
                0x00000000c0061c48                _RGBA
                0x00000000c0061c4c                _desktop0
                0x00000000c0061c50                _SMALL_heappool_address
                0x00000000c0061c54                _____whatchdog_ps2_keyboard
                0x00000000c0061c58                ___breaker_com3_initialized
                0x00000000c0061c60                _nicList
                0x00000000c0061c80                _____IDLE
                0x00000000c0061c84                _gui
                0x00000000c0061c88                _CurrentUserSession
                0x00000000c0061c8c                _g_device_screen_height
                0x00000000c0061c90                _g_mousepointer_height
                0x00000000c0061c94                _MEDIUM_kernel_base
                0x00000000c0061c98                _g_module_uem_initialized
                0x00000000c0061c9c                _processor
                0x00000000c0061ca0                _userList
                0x00000000c0061ce0                _prompt_pos
                0x00000000c0061ce4                _saved_mouse_x
                0x00000000c0061ce8                _Irq10
                0x00000000c0061cec                _Conductor
                0x00000000c0061cf0                _SMALL_frontbuffer_address
                0x00000000c0061cf4                _ide_handler_address
                0x00000000c0061cf8                _Process
                0x00000000c0061cfc                _mbr
                0x00000000c0061d00                _LARGE_vga_address
                0x00000000c0061d04                _current_mmblock
                0x00000000c0061d20                _deviceList
                0x00000000c0061da0                ___spinlock_ipc
                0x00000000c0061da4                _ASpace
                0x00000000c0061dc0                _objects_um
                0x00000000c00712b4                _mmFramesSuperBlockSize
                0x00000000c00712b8                _kernel_stack_start
                0x00000000c00712bc                _Rtc
                0x00000000c00712c0                _blSavedDiskNumber
                0x00000000c00712c4                _mm_used_extraheap3
                0x00000000c00712c8                _start_new_task_address
                0x00000000c00712cc                _g_module_gui_initialized
                0x00000000c00712d0                _file_Init
                0x00000000c00712d4                _KeInitPhase
                0x00000000c00712d8                _windows_count
                0x00000000c00712e0                _pagetableList
                0x00000000c00722e0                _combobox_window
                0x00000000c00722e4                _framepoolBackBuffer1
                0x00000000c00722e8                _g_driver_video_initialized
                0x00000000c00722ec                _active_window
                0x00000000c0072300                _vtList
                0x00000000c0072380                _objects_km
                0x00000000c0081874                _root
                0x00000000c0081878                _vfs
                0x00000000c008187c                _current_pci_device
                0x00000000c0081880                _file_InitTXT
                0x00000000c0081884                _g_show_text_cursor
                0x00000000c0081888                _Hardware
                0x00000000c008188c                _g_profiler_ints_irq10
                0x00000000c0081890                _current_process
                0x00000000c0081894                _appIconBuffer
                0x00000000c0081898                _current_desktop
                0x00000000c008189c                _Cursor
                0x00000000c00818a0                _numlock_status
                0x00000000c00818a4                _usession0
                0x00000000c00818a8                _g_extraheap2_size
                0x00000000c00818ac                _TaskBar
                0x00000000c00818b0                _CurrentSocket
                0x00000000c00818b4                _g_module_logoff_initialized
                0x00000000c00818b8                _pagetableCurrent
                0x00000000c00818bc                _____boot____disk
                0x00000000c00818c0                _g8x14fontAddress
                0x00000000c00818c4                _Irq12
                0x00000000c00818c8                _g_profiler_ints_irq1
                0x00000000c00818cc                _LARGE_extraheap2_address
                0x00000000c00818d0                _mainButton1
                0x00000000c00818d4                _g_profiler_ints_irq7
                0x00000000c00818d8                _scStatus
                0x00000000c00818dc                _stdin
                0x00000000c00818e0                _g_frontbuffer_pa
                0x00000000c00818e4                _old_mouse_buttom_1
                0x00000000c00818e8                _mmFramesSuperBlockTotalFree
                0x00000000c00818ec                _gcharWidth
                0x00000000c00818f0                _logonMenu
                0x00000000c00818f4                _gTaskmanPageDirectoryAddress
                0x00000000c00818f8                _savedmouseoverwindowY
                0x00000000c00818fc                _file_BootLoader
                0x00000000c0081900                _socketList
                0x00000000c0081980                ___breaker_com1_initialized
                0x00000000c0081984                _g_module_logon_initialized
                0x00000000c0081988                _MEDIUM_kernel_address
                0x00000000c008198c                _CurrentTTYBUFFER
                0x00000000c0081990                _client_stderr
                0x00000000c0081994                _next_address
                0x00000000c0081998                _destroy_window
                0x00000000c008199c                _____whatchdog_ps2_mouse
                0x00000000c00819a0                _dispatcherQueueIndex
                0x00000000c00819a4                _fileIconBuffer
                0x00000000c00819a8                _room0
                0x00000000c00819ac                _kernel_heap_start
                0x00000000c00819b0                _g_profiler_ints_irq11
                0x00000000c00819b4                _g8x16fontAddress
                0x00000000c00819b8                _g_current_object
                0x00000000c00819bc                _PrideColorScheme
                0x00000000c00819c0                _current_room
                0x00000000c00819c4                _mac_address
                0x00000000c00819c8                _SMALL_kernel_address
                0x00000000c00819cc                _queue
                0x00000000c00819e0                _UPProcessorBlock
                0x00000000c0081a14                _SMALL_pagedpool_address
                0x00000000c0081a18                _system_disk
                0x00000000c0081a1c                _DispatchCountBlock
                0x00000000c0081a20                _current_dead_process
                0x00000000c0081a24                _shift_status
                0x00000000c0081a40                _ide_dma_prdt
                0x00000000c0081a60                _current_directory
                0x00000000c0081a64                _xxxClonedProcess
                0x00000000c0081a68                _SMALL_extraheap3_address
                0x00000000c0081a80                _vfs_handle_list
                0x00000000c0082280                _sys_time_ms
                0x00000000c0082284                _kernel_stack_start_pa
                0x00000000c0082288                _rect
                0x00000000c008228c                _SMALL_extraheap2_address
                0x00000000c0082290                _partition_chars
                0x00000000c0082294                _logonStatus
                0x00000000c0082298                ___breaker_ps2mouse_initialized
                0x00000000c008229c                ___breaker_ata2_initialized
                0x00000000c00822a0                _framepoolFrontBuffer3
                0x00000000c00822a4                _current_window
                0x00000000c00822a8                _terminalIconBuffer
                0x00000000c00822ac                _g_available_heap
                0x00000000c00822b0                _start_new_task_id
                0x00000000c00822b4                _process_Conductor2
                0x00000000c00822b8                _g_heap_count
                0x00000000c00822bc                _alt_status
                0x00000000c00822c0                _schedulerType
                0x00000000c00822c4                _current_disk
                0x00000000c00822c8                _volume1_rootdir
                0x00000000c00822cc                _g_new_message
                0x00000000c00822d0                _pwd_initialized
                0x00000000c00822d4                _MEDIUM_vga_address
                0x00000000c00822d8                _blSavedHeads
                0x00000000c00822dc                _LARGE_frontbuffer_address
                0x00000000c00822e0                _Firmware
                0x00000000c00822e4                _volume_bootpartition
                0x00000000c0082300                _connectionList
                0x00000000c0082380                _file_BootManager
                0x00000000c0082384                _current_dead_thread
                0x00000000c0082388                _current_keyboard_responder
                0x00000000c008238c                _system_message_write
                0x00000000c0082390                _semaforo_priority
                0x00000000c0082394                _mouseover_window
                0x00000000c0082398                _kbMsgStatus
                0x00000000c008239c                _g_module_objectmanager_initialized
                0x00000000c00823a0                _ata_record_channel
                0x00000000c00823a4                _zorderTopWindow
                0x00000000c00823a8                _gKernelPageDirectoryAddress
                0x00000000c00823ac                _g_current_framepool
                0x00000000c00823b0                _current_taskman_server
                0x00000000c00823b4                _DefaultUser
                0x00000000c00823b8                _task_color
                0x00000000c00823bc                _g_profiler_ints_irq4
                0x00000000c00823c0                _framepoolFrontBuffer1
                0x00000000c00823c4                _heapCount
                0x00000000c00823c8                _windowzoneEnd
                0x00000000c00823cc                _g_pagedpool_va
                0x00000000c00823d0                _current_stderr
                0x00000000c00823d4                _current_mouse_responder
                0x00000000c00823d8                _g_profiler_ints_irq14
                0x00000000c00823dc                _pagedirectoryIdleProcess
                0x00000000c00823e0                _client_stdio
                0x00000000c00823e4                _volume_vfs
                0x00000000c00823e8                _g_mousepointer_x
                0x00000000c00823ec                _terminal_count
                0x00000000c00823f0                _usersession_start
                0x00000000c00823f4                _profiler_percentage_idle_thread
                0x00000000c00823f8                _processors_count
                0x00000000c00823fc                _CurrentProcedure
                0x00000000c0082400                _mmFramesSuperBlockTotal
                0x00000000c0082404                _SMALL_vga_address
                0x00000000c0082408                _periodic_procs
                0x00000000c008240c                _g_inputmode
                0x00000000c0082410                _SMALL_kernel_base
                0x00000000c0082414                _keyboard_handler_address
                0x00000000c0082418                _MEDIUM_extraheap2_address
                0x00000000c008241c                _kernel_stack_end
                0x00000000c0082420                _file_Kernel
                0x00000000c0082424                _current_tss
                0x00000000c0082428                _g_extraheap2_va
                0x00000000c008242c                _g_object_manager_status
                0x00000000c0082430                _InitProcess
                0x00000000c0082434                _system_volume
                0x00000000c0082438                _microkernelStatus
                0x00000000c008243c                _zones
                0x00000000c0082440                _lineBuffer
                0x00000000c0082444                _miMemoryInfo
                0x00000000c0082448                _SMALL_extraheap1_address
                0x00000000c008244c                _g_module_runtime_initialized
                0x00000000c0082450                _ioControl_keyboard
                0x00000000c0082454                _file_LA
                0x00000000c0082460                _FT
                0x00000000c0082484                _VersionInfo
                0x00000000c00824a0                _inode_list
                0x00000000c0082ca0                _processorList
                0x00000000c0082d20                _file_CFE
                0x00000000c0082d24                _system_procs
                0x00000000c0082d28                _window_with_focus
                0x00000000c0082d2c                _g_proc_status
                0x00000000c0082d30                _framepoolCurrent
                0x00000000c0082d40                _desktopList
                0x00000000c0082d80                _gNextKeyboardMessage
                0x00000000c0082d84                _pagedirectoryShared
                0x00000000c0082d88                _g_heappool_va
                0x00000000c0082d8c                _g_current_ide_channel
                0x00000000c0082d90                _current_display
                0x00000000c0082d94                _g_spc
                0x00000000c0082d98                _xxxxcrazy_stuff
                0x00000000c0082d9c                _pagedirectoryCurrent
                0x00000000c0082da0                _gLogonPID
                0x00000000c0082dc0                _VECTORS
                0x00000000c00831c0                _CurrentWindow
                0x00000000c00831c4                _g_product_type
                0x00000000c00831c8                _vbr
                0x00000000c00831cc                _Irq14
                0x00000000c00831d0                _profiler_ticks_count
                0x00000000c00831d4                _g_heap_pointer
                0x00000000c00831d8                _LineShell
                0x00000000c00831dc                _WindowWithFocus
                0x00000000c00831e0                _task_count
                0x00000000c00831e4                _Screen
                0x00000000c00831e8                _pipe_gramadocore_init_execve
                0x00000000c0083200                _channelList
                0x00000000c0083280                _g_kernel_nonpaged_memory
                0x00000000c0083284                _timer_handler_address
                0x00000000c0083288                _kernel_switch
                0x00000000c008328c                _old_mouse_buttom_3
                0x00000000c0083290                _guiStatus
                0x00000000c0083294                _window_rootConductor
                0x00000000c0083298                _terminalLineMax
                0x00000000c00832a0                _heapList
                0x00000000c00832c0                _ttyCurrentX
                0x00000000c00832c4                _volume2_rootdir
                0x00000000c00832c8                _CurrentDesktop
                0x00000000c00832cc                _DriveContext
                0x00000000c00832e0                _prompt_err
                0x00000000c00833e0                _abnt2
                0x00000000c00833e4                _gFocusBlocked
                0x00000000c00833e8                _current_socket
                0x00000000c00833ec                _LARGE_backbuffer_address
                0x00000000c00833f0                _sata_handler_address
                0x00000000c00833f4                _desktops_count
                0x00000000c00833f8                _KernelPages
                0x00000000c0083400                _directory_entry_list
                0x00000000c0083c00                _g_driver_apic_initialized
                0x00000000c0083c04                _LARGE_pagedpool_address
                0x00000000c0083c20                _FREE_FRAMES
                0x00000000c0089c20                __lockfocus
                0x00000000c0089c24                _file_download
                0x00000000c0089c28                _saved_mouse_y
                0x00000000c0089c2c                _current_usersession
                0x00000000c0089c30                _g_video_mode
                0x00000000c0089c34                _ttyCurrentY
                0x00000000c0089c38                _fat
                0x00000000c0089c3c                _mm_used_pagedpool
                0x00000000c0089c40                _stdio_verbosemode_flag
                0x00000000c0089c44                _file_bin
                0x00000000c0089c48                _mmFramesSuperBlockEnd
                0x00000000c0089c60                _processList
                0x00000000c008ac60                _memorysizeAvailableVirtualMemory
                0x00000000c008ac64                _memorysizeExtendedMemory
                0x00000000c008ac68                _Irq8
                0x00000000c008ac6c                _lineLine
                0x00000000c008ac70                _gPagedPollStart
                0x00000000c008ac80                _roomList
                0x00000000c008acc0                _g_backbuffer_pa
                0x00000000c008acc4                _systemzone
                0x00000000c008acc8                _keyboard_message_tail
                0x00000000c008accc                _dead_thread_collector_status
                0x00000000c008acd0                _ata_pci
                0x00000000c008acd4                _ATAFlag
                0x00000000c008acd8                _sys_time_hz
                0x00000000c008acdc                _gLogoffPID
                0x00000000c008ace0                _profiler_ticks_limit
                0x00000000c008ace4                _gfontSize
                0x00000000c008ace8                _start_new_task_status
                0x00000000c008acec                _CurrentProcess
                0x00000000c008acf0                _framepoolFrontBuffer4
                0x00000000c008acf4                _current_semaphore
                0x00000000c008ad00                _gramado_ports
                0x00000000c008ad80                _realtimeprocessorList
                0x00000000c008ae00                _timer_cursor_used
                0x00000000c008ae04                _CurrentTTYLDISC
                0x00000000c008ae08                _clientCP
                0x00000000c008ae0c                _profiler_percentage_all_normal_threads
                0x00000000c008ae20                _SWAPPED_FRAMES
                0x00000000c0090e20                _g_total_physical_memory
                0x00000000c0090e24                _SMALL_backbuffer_address
                0x00000000c0090e28                _g_mousepointer_width
                0x00000000c0090e40                _HANDLERS
                0x00000000c0091260                _current_terminal
                0x00000000c0091264                _line_stderr
                0x00000000c0091268                _lineOffset
                0x00000000c009126c                _window_Conductor2
                0x00000000c0091270                _g_machine_type
                0x00000000c0091274                _current_tty
                0x00000000c0091278                _client_stdout
                0x00000000c009127c                _eventStatus
                0x00000000c0091280                _Irq11
                0x00000000c0091284                _MEDIUM_frontbuffer_address
                0x00000000c0091288                _current_stdout
                0x00000000c009128c                _ipcBuffer
                0x00000000c0091290                _newtask_EIP
                0x00000000c0091294                _g_profiler_ints_irq5
                0x00000000c0091298                _memorysizeTotalVirtualMemory
                0x00000000c009129c                _top_window
                0x00000000c00912a0                _menuitemDefault
                0x00000000c00912a4                _g_scheduler_status
                0x00000000c00912a8                _FULLSCREEN_TABWINDOW
                0x00000000c00912ac                _LARGE_extraheap1_address
                0x00000000c00912b0                _quit_message
                0x00000000c00912b4                _TaskManProcess
                0x00000000c00912b8                _LineHead
                0x00000000c00912bc                _LARGE_user_address
                0x00000000c00912c0                _ide_ports
                0x00000000c0091320                _SystemUser
                0x00000000c0091324                _MEDIUM_pagedpool_address
                0x00000000c0091328                _mm_used_backbuffer
                0x00000000c009132c                _current_quantum
                0x00000000c0091330                _stdout
                0x00000000c0091334                _dead_thread_collector_flag
                0x00000000c0091340                _activeprocessorList
                0x00000000c00913c0                _windowzoneSize
                0x00000000c00913c4                _g_driver_rtc_initialized
                0x00000000c00913c8                _SystemClasses
                0x00000000c00913d4                _mm_used_frame_table
                0x00000000c00913e0                _objects_gui
                0x00000000c00a08d4                _CurrentTTYDRV
                0x00000000c00a08d8                _g_navigationbar_width
                0x00000000c00a08dc                _gws_currentfont_address
                0x00000000c00a08e0                _windowList
                0x00000000c00a18e0                _gPagedPollEnd
                0x00000000c00a18e4                _windowzone
                0x00000000c00a1900                _ttyList
                0x00000000c00a1d00                _file_CS
                0x00000000c00a1d04                _memorysizeFree
                0x00000000c00a1d08                _Irq6
                0x00000000c00a1d0c                _gInitPageDirectoryAddress
                0x00000000c00a1d10                _IDE
                0x00000000c00a1d24                _g_system_color
                0x00000000c00a1d28                _Irq3
                0x00000000c00a1d2c                _realtimeStatus
                0x00000000c00a1d30                _editbox_window
                0x00000000c00a1d34                _kernel_request
                0x00000000c00a1d38                _g_pageable_framepool_index_max
                0x00000000c00a1d3c                _current_thread
                0x00000000c00a1d40                _blSavedMetafileAddress
                0x00000000c00a1d60                _Pipes
                0x00000000c00a1d80                _processorsList
                0x00000000c00a1e00                _Bank
                0x00000000c00a1e04                _fileBuffer
                0x00000000c00a1e08                _timer_cursor_status
                0x00000000c00a1e0c                _g_current_vm
                0x00000000c00a1e10                _rectClientArea
                0x00000000c00a1e14                _g_extraheap3_va
                0x00000000c00a1e18                _file_Shell
                0x00000000c00a1e20                _current_target_dir
                0x00000000c00a1e4c                _mm_used_kernel_area
                0x00000000c00a1e50                _schedulerQueue
                0x00000000c00a1e60                _systemSize
                0x00000000c00a1e64                _SMALL_user_address
                0x00000000c00a1e68                _gDeveloperOptions
                0x00000000c00a1e6c                _g_profiler_ints_irq12
                0x00000000c00a1e80                _keybuffer
                0x00000000c00a1f00                _zorder
                0x00000000c00a1f04                _mm_used_extraheap2
                0x00000000c00a1f20                _keyboard_queue
                0x00000000c00a2040                _forkid
                0x00000000c00a2044                _menus_count
                0x00000000c00a2048                _current_volume
                0x00000000c00a204c                _shutdown_address
                0x00000000c00a2050                _devices
                0x00000000c00a2060                _ioControl
                0x00000000c00a20e0                _terminalLine
                0x00000000c00a20e4                _serialportError
                0x00000000c00a2100                _mountedList
                0x00000000c00a2300                _gcharHeight
                0x00000000c00a2304                _g_use_default_user
                0x00000000c00a2308                _g_profiler_ints_irq8
                0x00000000c00a230c                _mouse_buttom_1
                0x00000000c00a2310                _RING0IDLEThread
                0x00000000c00a2314                _g_profiler_ints_irq3
                0x00000000c00a2318                _framepoolFrontBuffer2
                0x00000000c00a231c                _pipe_execve
                0x00000000c00a2320                _diskList
                0x00000000c00a3320                _server_stderr
                0x00000000c00a3324                _Conductor2
                0x00000000c00a3328                ___breaker_ata1_initialized
                0x00000000c00a332c                _KernelClasses
                0x00000000c00a3340                _fsbFreeFrames
                0x00000000c00a4340                _old_mouse_buttom_2
                0x00000000c00a4344                _screenBuffers
                0x00000000c00a4348                _current_process_pagedirectory_address
                0x00000000c00a434c                _rr_procs
                0x00000000c00a4350                _KernelProcess
                0x00000000c00a4354                _framepoolPageableSpace
                0x00000000c00a4358                _lineLineMax
                0x00000000c00a435c                _KernelHeapSize
                0x00000000c00a4360                _xxx_gdt_ptr
                0x00000000c00a4368                _HostDeviceInfo
                0x00000000c00a4380                _prompt_out
                0x00000000c00a4480                _bmp_selected_color
                0x00000000c00a4484                _g_driver_pci_initialized
                0x00000000c00a44a0                _file_cluster_list
                0x00000000c00a4ca0                _g_profiler_ints_gde_services
                0x00000000c00a4ca4                ___breaker_rtc_initialized
                0x00000000c00a4ca8                _jiffies
                0x00000000c00a4cac                _escape_status
                0x00000000c00a4cb0                _LARGE_heappool_address
                0x00000000c00a4cb4                _memorysizeOtherMemory
                0x00000000c00a4cc0                _mmblockList
                0x00000000c00accc0                _g_driver_timer_initialized
                0x00000000c00accc4                _blSavedSPT
                0x00000000c00accc8                _ClonedThread
                0x00000000c00acccc                _HostInfo
                0x00000000c00accd0                _ata_identify_dev_buf
                0x00000000c00accd4                _Irq0
                0x00000000c00accd8                _file_dd
                0x00000000c00accdc                _DSpace
                0x00000000c00acce0                _blSavedLastValidAddress
                0x00000000c00acce4                _g_next_app
                0x00000000c00acd00                _timerList
                0x00000000c00acd80                _file_libs
                0x00000000c00acd84                _idle_proc
                0x00000000c00acd88                _clientCR
                0x00000000c00acd8c                _g_useGUI
                0x00000000c00acd90                _g_filesystem_type
                0x00000000c00acd94                _Irq4
                0x00000000c00acd98                _dirCount
                0x00000000c00acd9c                _ShellProcess
                0x00000000c00acda0                _CurrentFileAccess
                0x00000000c00acda4                _keybuffer_head
                0x00000000c00acda8                _CurrentBuffer
                0x00000000c00acdac                _CurrentColorScheme
                0x00000000c00acdb0                _next_quantum
                0x00000000c00acdb4                _process_rootConductor
                0x00000000c00acdc0                _dev_nport
                0x00000000c00acde0                _stdio_terminalmode_flag
                0x00000000c00acde4                _menuDefault
                0x00000000c00acde8                _framepoolSmallSystemUserSpace
                0x00000000c00acdec                _memorysizeTotalPhysicalMemory
                0x00000000c00acdf0                _ata
                0x00000000c00ace08                _rootConductor
                0x00000000c00ace0c                _gSystemStatus
                0x00000000c00ace10                _DeveloperWindowCursor
                0x00000000c00ace14                _tab_status
                0x00000000c00ace18                _Version
                0x00000000c00ace1c                _file_pwd
                0x00000000c00ace20                _REQUEST
                0x00000000c00ace54                _userenvironmentStatus
                0x00000000c00ace58                _g_guiMinimal
                0x00000000c00ace5c                _time_out
                0x00000000c00ace60                _current_file
                0x00000000c00ace64                _pagedirectoryKernelProcess
                0x00000000c00ace68                _g_mainwindow_height
                0x00000000c00ace6c                _VideoBlock
                0x00000000c00ace88                _System
                0x00000000c00ace8c                _KernelSize
                0x00000000c00ace90                _Line
                0x00000000c00acea0                _dispatcherReadyList
                0x00000000c00acec8                _ScreenInfo
                0x00000000c00acecc                _CurrentCursor
                0x00000000c00aced0                _g_profiler_ints_irq0
                0x00000000c00aced4                _g8x8fontAddress
                0x00000000c00aced8                _KernelStackSize
                0x00000000c00acedc                _memorysizeInstalledPhysicalMemory
                0x00000000c00acee0                _keybuffer_index
                0x00000000c00acee4                _memorysizeTotal
                0x00000000c00acf00                _pageAllocList
                0x00000000c00adf00                _g_system_mode
                0x00000000c00adf04                _Irq1
                0x00000000c00adf08                _g_current_video_mode
                0x00000000c00adf0c                _g_heap_count_max
                0x00000000c00adf10                _ESCAPE_E0
                0x00000000c00adf14                _current_group
                0x00000000c00adf18                _process_Conductor
                0x00000000c00adf1c                _BackBufferInfo
                0x00000000c00adf20                _file_users
                0x00000000c00adf24                _conductorIndex
                0x00000000c00adf28                _g_mousepointer_y
                0x00000000c00adf2c                _g_framepool_max
                0x00000000c00adf30                _task_waiting
                0x00000000c00adf34                _keybuffer_tail
                0x00000000c00adf38                _mm_used_user_area
                0x00000000c00adf3c                ___breaker_com4_initialized
                0x00000000c00adf40                _QUEUES
                0x00000000c00adf4c                _volume_systempartition
                0x00000000c00adf50                _Irq7
                0x00000000c00adf54                _banksCount
                0x00000000c00adf58                _Pic
                0x00000000c00adf5c                _Platform
                0x00000000c00adf60                _g_profiler_ints_irq15
                0x00000000c00adf64                _system_message_read
                0x00000000c00adf80                _fileList
                0x00000000c00ae000                _errno
                0x00000000c00ae004                _old
                0x00000000c00ae008                _g_heap_size
                0x00000000c00ae00c                _LARGE_extraheap3_address
                0x00000000c00ae010                _gSystemEdition
                0x00000000c00ae020                _pagedirectoryList
                0x00000000c00af020                _framepoolMediumSystemUserSpace
                0x00000000c00af024                _mm_used_lfb
                0x00000000c00af028                _menubarDefault
                0x00000000c00af02c                _logoffStatus
                0x00000000c00af030                _current_user
                0x00000000c00af034                _WindowProcedure
                0x00000000c00af038                _framepoolKernelSpace
                0x00000000c00af03c                _memorysizeBaseMemory
                0x00000000c00af040                _g_current_ide_device
                0x00000000c00af044                _rooms_count
                0x00000000c00af048                _key_status
                0x00000000c00af04c                _server_stdout
                0x00000000c00af050                _currentNIC
                0x00000000c00af054                ___breaker_ps2keyboard_initialized
                0x00000000c00af058                _mmblockCount
                0x00000000c00af05c                _prompt_status
                0x00000000c00af060                _pagedirectoryTaskmanProcess
                0x00000000c00af064                _ambiente
                0x00000000c00af068                _framepoolLargeSystemUserSpace
                0x00000000c00af06c                _g_platform_type
                0x00000000c00af070                _folderIconBuffer
                0x00000000c00af074                _line_stdin
                0x00000000c00af078                _g_kernel_paged_memory
                0x00000000c00af07c                _mmFramesSuperBlockStart
                0x00000000c00af080                _mouseBMPBuffer
                0x00000000c00af084                _g_driver_keyboard_initialized
                0x00000000c00af088                _rtc
                0x00000000c00af08c                _bmp_substitute_color
                0x00000000c00af090                _window_Conductor
                0x00000000c00af094                _lastBank
                0x00000000c00af0a0                _TTY
                0x00000000c00af760                _e1000_interrupt_flag
                0x00000000c00af764                _g_mm_system_type
                0x00000000c00af768                _g_kernel_lfb
                0x00000000c00af76c                _PciDrivers
                0x00000000c00af780                _system_message_queue
                0x00000000c00af800                _terminal_window
                0x00000000c00af804                _mainButton2
                0x00000000c00af808                _CurrentScreen
                0x00000000c00af80c                _g_extraheap1_va
                0x00000000c00af810                _g_profiler_ints_irq6
                0x00000000c00af814                _ttyLineCounter
                0x00000000c00af818                _g_char_attrib
                0x00000000c00af81c                _current_arch
                0x00000000c00af820                _HumilityColorScheme
                0x00000000c00af824                _memorysizeUsed
                0x00000000c00af828                _window_mouse_over
                0x00000000c00af82c                _file_tmp
                0x00000000c00af830                _ctrl_status
                0x00000000c00af834                _e1000_irq_count
                0x00000000c00af838                _g_module_shell_initialized
                0x00000000c00af83c                _g_next_proc
                0x00000000c00af840                _semaphoreList
                0x00000000c00af8c4                _file_CWE
                0x00000000c00af8c8                _winkey_status
                0x00000000c00af8cc                _FrontBufferInfo
                0x00000000c00af8d0                _g_extraheap3_size
                0x00000000c00af8d4                _g_current_list
                0x00000000c00af8d8                _savedmouseoverwindowX
                0x00000000c00af8dc                _line_stdout
                0x00000000c00af8e0                _g_module_mm_initialized
                0x00000000c00af8e4                _LARGE_kernel_address
                0x00000000c00af900                _current_workingdiretory_string
                0x00000000c00af920                _gShellPageDirectoryAddress
                0x00000000c00af940                _volumeList
                0x00000000c00b0940                _TERMINAL
                0x00000000c00b0a00                _g_nova_mensagem
                0x00000000c00b0a04                _MEDIUM_heappool_address
                0x00000000c00b0a08                _current_menu
                0x00000000c00b0a0c                _pmiCurrent
                0x00000000c00b0a10                _g_profiler_ints_irq9
                0x00000000c00b0a14                _Pci
                0x00000000c00b0a18                _mouse_buttom_2
                0x00000000c00b0a1c                _CurrentConnection
                0x00000000c00b0a20                _CurrentUser
 COMMON         0x00000000c00b0a24       0x34 gde_serv.o
                0x00000000c00b0a24                _cwArg1
                0x00000000c00b0a28                _cwArg2
                0x00000000c00b0a2c                _cwArg11
                0x00000000c00b0a30                _cwArg8
                0x00000000c00b0a34                _cwArg3
                0x00000000c00b0a38                _cwArg9
                0x00000000c00b0a3c                _cwArg10
                0x00000000c00b0a40                _cwFlag
                0x00000000c00b0a44                _cwArg12
                0x00000000c00b0a48                _cwArg5
                0x00000000c00b0a4c                _cwArg7
                0x00000000c00b0a50                _cwArg4
                0x00000000c00b0a54                _cwArg6
 COMMON         0x00000000c00b0a58        0x4 install.o
                0x00000000c00b0a58                _xxxx_nothingxxxx
 COMMON         0x00000000c00b0a5c        0x4 modules.o
                0x00000000c00b0a5c                _modulesStatus
 COMMON         0x00000000c00b0a60        0x4 signal.o
                0x00000000c00b0a60                _Signal
 COMMON         0x00000000c00b0a64        0x4 ahci.o
                0x00000000c00b0a64                _SATAFlag
 COMMON         0x00000000c00b0a68        0xc ata.o
                0x00000000c00b0a68                _dma_addr
                0x00000000c00b0a6c                _current_dev
                0x00000000c00b0a70                _ready_queue_dev
 COMMON         0x00000000c00b0a74        0x8 hdd.o
                0x00000000c00b0a74                _hddError
                0x00000000c00b0a78                _hddStatus
 COMMON         0x00000000c00b0a7c        0xc network.o
                0x00000000c00b0a7c                _network_status
                0x00000000c00b0a80                _network__stream
                0x00000000c00b0a84                _notification_status
 COMMON         0x00000000c00b0a88        0x5 nicintel.o
                0x00000000c00b0a88                _nic_idt_entry_new_address
                0x00000000c00b0a8c                _nic_idt_entry_new_number
 *fill*         0x00000000c00b0a8d        0x3 
 COMMON         0x00000000c00b0a90        0x8 pci.o
                0x00000000c00b0a90                _pciListOffset
                0x00000000c00b0a94                _pci_supported
 COMMON         0x00000000c00b0a98       0x10 tty.o
                0x00000000c00b0a98                _tty_table
 COMMON         0x00000000c00b0aa8       0x18 video.o
                0x00000000c00b0aa8                ___frontbuffer_pa
                0x00000000c00b0aac                _videoError
                0x00000000c00b0ab0                ___cga_va
                0x00000000c00b0ab4                ___frontbuffer_va
                0x00000000c00b0ab8                ___cga_pa
                0x00000000c00b0abc                _videoStatus
 COMMON         0x00000000c00b0ac0        0x8 screen.o
                0x00000000c00b0ac0                _screen_height
                0x00000000c00b0ac4                _screen_width
 COMMON         0x00000000c00b0ac8        0x8 xproc.o
                0x00000000c00b0ac8                ____yyy
                0x00000000c00b0acc                ____xxx
 COMMON         0x00000000c00b0ad0       0x14 ps2mouse.o
                0x00000000c00b0ad0                _ps2_button_pressed
                0x00000000c00b0ad4                _ps2_mouse_has_wheel
                0x00000000c00b0ad8                _ps2_mouse_status
                0x00000000c00b0adc                _ps2_mouse_moving
                0x00000000c00b0ae0                _ps2_mouse_drag_status
 COMMON         0x00000000c00b0ae4        0x8 pic.o
                0x00000000c00b0ae4                _picError
                0x00000000c00b0ae8                _picStatus
 COMMON         0x00000000c00b0aec        0xc rtc.o
                0x00000000c00b0aec                _rtcError
                0x00000000c00b0af0                _rtcTicks
                0x00000000c00b0af4                _rtcStatus
 COMMON         0x00000000c00b0af8       0x20 pit.o
                0x00000000c00b0af8                _timerShowTextCursor
                0x00000000c00b0afc                _timerColor
                0x00000000c00b0b00                _timerTextCursorStatus
                0x00000000c00b0b04                _timerStatus
                0x00000000c00b0b08                _timerIdleState
                0x00000000c00b0b0c                _timerError
                0x00000000c00b0b10                _timerLock
                0x00000000c00b0b14                _timerLine
 *fill*         0x00000000c00b0b18        0x8 
 COMMON         0x00000000c00b0b20    0x10000 write.o
                0x00000000c00b0b20                _list
 COMMON         0x00000000c00c0b20       0x14 wm.o
                0x00000000c00c0b20                _save_client_rect_top
                0x00000000c00c0b24                _fsStatus
                0x00000000c00c0b28                _save_client_rect_left
                0x00000000c00c0b2c                _save_client_rect_height
                0x00000000c00c0b30                _save_client_rect_width
 COMMON         0x00000000c00c0b34        0x4 input.o
                0x00000000c00c0b34                _xxxinini
 COMMON         0x00000000c00c0b38        0x4 output.o
                0x00000000c00c0b38                _zzzzdummy
 COMMON         0x00000000c00c0b3c        0xc kgwm.o
                0x00000000c00c0b3c                _kgwm_wm_status
                0x00000000c00c0b40                _kgwm_wm_PID
                0x00000000c00c0b44                _kgwm_status
 COMMON         0x00000000c00c0b48       0x54 kgws.o
                0x00000000c00c0b48                _kgws_mouse_event_old_mouse_buttom_2
                0x00000000c00c0b4c                _kgws_mouse_event_mouse_buttom_2
                0x00000000c00c0b50                _kgws_ws_status
                0x00000000c00c0b54                _kgws_mouse_event_old_mouse_buttom_1
                0x00000000c00c0b58                _kgws_mouse_event_saved_mouse_y
                0x00000000c00c0b5c                _kgws_mouse_event_drag_status
                0x00000000c00c0b60                _kgws_mouse_event_button_action
                0x00000000c00c0b64                _kgws_mouse_event_saved_mouse_x
                0x00000000c00c0b68                _kgws_mouse_event_mouse_y
                0x00000000c00c0b6c                _kgws_mouse_event_mouse_x
                0x00000000c00c0b70                _kgws_last_totalticks
                0x00000000c00c0b74                _flagRefreshMouseOver
                0x00000000c00c0b78                _kgws_ws_PID
                0x00000000c00c0b7c                _kgws_mouse_event_old_mouse_buttom_3
                0x00000000c00c0b80                _kgws_mouse_event_mouse_buttom_3
                0x00000000c00c0b84                _kgws_status
                0x00000000c00c0b88                _kgws_mouse_event_button_pressed
                0x00000000c00c0b8c                _kgws_delta_totalticks
                0x00000000c00c0b90                _kgws_current_totalticks
                0x00000000c00c0b94                _kgws_mouse_event_mouse_buttom_1
                0x00000000c00c0b98                _kgws_mouse_event_moving
 COMMON         0x00000000c00c0b9c       0x40 x86cont.o
                0x00000000c00c0b9c                _contextESP
                0x00000000c00c0ba0                _contextEDX
                0x00000000c00c0ba4                _contextFS
                0x00000000c00c0ba8                _contextDS
                0x00000000c00c0bac                _contextESI
                0x00000000c00c0bb0                _contextEIP
                0x00000000c00c0bb4                _contextGS
                0x00000000c00c0bb8                _contextEFLAGS
                0x00000000c00c0bbc                _contextECX
                0x00000000c00c0bc0                _contextEBP
                0x00000000c00c0bc4                _contextCS
                0x00000000c00c0bc8                _contextEAX
                0x00000000c00c0bcc                _contextEBX
                0x00000000c00c0bd0                _contextEDI
                0x00000000c00c0bd4                _contextES
                0x00000000c00c0bd8                _contextSS
 COMMON         0x00000000c00c0bdc        0xc x86fault.o
                0x00000000c00c0bdc                _thread_failed_flag
                0x00000000c00c0be0                _demand_paging_flag
                0x00000000c00c0be4                _fatal_error_flag
 COMMON         0x00000000c00c0be8        0x8 process.o
                0x00000000c00c0be8                _processNewPID
                0x00000000c00c0bec                _caller_process_id
 COMMON         0x00000000c00c0bf0        0x4 ts.o
                0x00000000c00c0bf0                _lock_taskswitch
 COMMON         0x00000000c00c0bf4        0x4 ipc.o
                0x00000000c00c0bf4                _ipcStatus
 *fill*         0x00000000c00c0bf8        0x8 
 COMMON         0x00000000c00c0c00      0x110 ipccore.o
                0x00000000c00c0c00                _GRAMADOCORE
 COMMON         0x00000000c00c0d10        0xc memory.o
                0x00000000c00c0d10                _mm_prev_pointer
                0x00000000c00c0d14                _last_size
                0x00000000c00c0d18                _last_valid
 *(.bss)
 .bss           0x00000000c00c0d1c        0x0 boot.o
                0x00000000c00c0d1c                _bss_start
 .bss           0x00000000c00c0d1c       0x2c main.o
 .bss           0x00000000c00c0d48       0x2c x86main.o
 .bss           0x00000000c00c0d74       0x2c socket.o
 .bss           0x00000000c00c0da0       0x2c ctype.o
 .bss           0x00000000c00c0dcc       0x2c kstdio.o
 .bss           0x00000000c00c0df8       0x2c stdlib.o
 .bss           0x00000000c00c0e24       0x30 string.o
 .bss           0x00000000c00c0e54       0x2c unistd.o
 .bss           0x00000000c00c0e80       0x2c devmgr.o
 .bss           0x00000000c00c0eac       0x2c gde_serv.o
 .bss           0x00000000c00c0ed8       0x2c debug.o
 .bss           0x00000000c00c0f04       0x2c storage.o
 .bss           0x00000000c00c0f30        0x0 install.o
 .bss           0x00000000c00c0f30       0x2c object.o
 .bss           0x00000000c00c0f5c       0x2c runtime.o
 .bss           0x00000000c00c0f88       0x2c abort.o
 .bss           0x00000000c00c0fb4       0x2c info.o
 .bss           0x00000000c00c0fe0       0x2c io.o
 .bss           0x00000000c00c100c       0x2c modules.o
 .bss           0x00000000c00c1038       0x2c signal.o
 .bss           0x00000000c00c1064       0x2c sm.o
 .bss           0x00000000c00c1090       0x2c init.o
 .bss           0x00000000c00c10bc       0x2c system.o
 .bss           0x00000000c00c10e8       0x2c execve.o
 .bss           0x00000000c00c1114       0x2c cpuamd.o
 .bss           0x00000000c00c1140       0x2c portsx86.o
 .bss           0x00000000c00c116c       0x2c syscall.o
 *fill*         0x00000000c00c1198        0x8 
 .bss           0x00000000c00c11a0       0x64 x86.o
 .bss           0x00000000c00c1204       0x2c detect.o
 .bss           0x00000000c00c1230       0x2c hal.o
 .bss           0x00000000c00c125c       0x2c ahci.o
 .bss           0x00000000c00c1288       0x30 ata.o
                0x00000000c00c1288                _dev_next_pid
 .bss           0x00000000c00c12b8       0x2c atadma.o
 .bss           0x00000000c00c12e4       0x2c atainit.o
 .bss           0x00000000c00c1310       0x30 atairq.o
 .bss           0x00000000c00c1340       0x2c atapci.o
 .bss           0x00000000c00c136c       0x2c hdd.o
 .bss           0x00000000c00c1398       0x2c channel.o
 .bss           0x00000000c00c13c4       0x2c network.o
 .bss           0x00000000c00c13f0       0x2c nicintel.o
 .bss           0x00000000c00c141c       0x2c pci.o
 .bss           0x00000000c00c1448       0x2c pciinfo.o
 .bss           0x00000000c00c1474       0x2c pciscan.o
 .bss           0x00000000c00c14a0       0x2c tty.o
 .bss           0x00000000c00c14cc       0x2c pty.o
 .bss           0x00000000c00c14f8       0x2d vt.o
 *fill*         0x00000000c00c1525        0x3 
 .bss           0x00000000c00c1528       0x2c usb.o
 .bss           0x00000000c00c1554       0x2c video.o
 .bss           0x00000000c00c1580       0x2c vsync.o
 .bss           0x00000000c00c15ac       0x2c screen.o
 .bss           0x00000000c00c15d8       0x2c xproc.o
 .bss           0x00000000c00c1604       0x2c i8042.o
 .bss           0x00000000c00c1630       0x2c keyboard.o
 .bss           0x00000000c00c165c       0x2c mouse.o
 .bss           0x00000000c00c1688       0x2c ps2kbd.o
 .bss           0x00000000c00c16b4       0x3f ps2mouse.o
                0x00000000c00c16b4                _mouse_x
                0x00000000c00c16b8                _mouse_y
                0x00000000c00c16bc                _mouse_packet_data
                0x00000000c00c16bd                _mouse_packet_x
                0x00000000c00c16be                _mouse_packet_y
                0x00000000c00c16bf                _mouse_packet_scroll
 *fill*         0x00000000c00c16f3        0x1 
 .bss           0x00000000c00c16f4       0x2c ldisc.o
 .bss           0x00000000c00c1720       0x2c apic.o
 .bss           0x00000000c00c174c       0x2c pic.o
 .bss           0x00000000c00c1778       0x2c rtc.o
 .bss           0x00000000c00c17a4       0x2c serial.o
 .bss           0x00000000c00c17d0       0x2c pit.o
 .bss           0x00000000c00c17fc       0x2c cf.o
 .bss           0x00000000c00c1828       0x2c format.o
 .bss           0x00000000c00c1854       0x2c pipe.o
 .bss           0x00000000c00c1880       0x2c fs.o
 .bss           0x00000000c00c18ac       0x2c read.o
 .bss           0x00000000c00c18d8       0x2c search.o
 .bss           0x00000000c00c1904       0x2c write.o
 *fill*         0x00000000c00c1930       0x10 
 .bss           0x00000000c00c1940       0x8d cedge.o
 *fill*         0x00000000c00c19cd        0x3 
 .bss           0x00000000c00c19d0       0x2c bg.o
 .bss           0x00000000c00c19fc       0x30 bmp.o
 .bss           0x00000000c00c1a2c       0x2c button.o
 .bss           0x00000000c00c1a58       0x2c char.o
 .bss           0x00000000c00c1a84       0x2c createw.o
 .bss           0x00000000c00c1ab0       0x2c dtext.o
 .bss           0x00000000c00c1adc       0x2c font.o
 .bss           0x00000000c00c1b08       0x2c grid.o
 .bss           0x00000000c00c1b34       0x2c line.o
 .bss           0x00000000c00c1b60       0x2c menu.o
 .bss           0x00000000c00c1b8c       0x2c menubar.o
 .bss           0x00000000c00c1bb8       0x2c pixel.o
 .bss           0x00000000c00c1be4       0x2c rect.o
 .bss           0x00000000c00c1c10       0x2c sbar.o
 .bss           0x00000000c00c1c3c       0x2c toolbar.o
 .bss           0x00000000c00c1c68       0x2c wm.o
 .bss           0x00000000c00c1c94       0x2c logoff.o
 .bss           0x00000000c00c1cc0       0x2c logon.o
 .bss           0x00000000c00c1cec       0x2c input.o
 .bss           0x00000000c00c1d18        0x0 output.o
 .bss           0x00000000c00c1d18       0x2c terminal.o
 .bss           0x00000000c00c1d44       0x2c desktop.o
 .bss           0x00000000c00c1d70       0x2c room.o
 .bss           0x00000000c00c1d9c       0x2c userenv.o
 .bss           0x00000000c00c1dc8       0x2c usession.o
 .bss           0x00000000c00c1df4       0x2c kgwm.o
 .bss           0x00000000c00c1e20       0x2c kgws.o
 .bss           0x00000000c00c1e4c       0x2c vfs.o
 .bss           0x00000000c00c1e78       0x2c x86cont.o
 .bss           0x00000000c00c1ea4       0x2c x86fault.o
 .bss           0x00000000c00c1ed0       0x2c x86start.o
 .bss           0x00000000c00c1efc       0x2c dispatch.o
 .bss           0x00000000c00c1f28       0x2c pheap.o
 .bss           0x00000000c00c1f54       0x2c process.o
 .bss           0x00000000c00c1f80       0x2c clone.o
 .bss           0x00000000c00c1fac       0x2c queue.o
 .bss           0x00000000c00c1fd8       0x2c spawn.o
 .bss           0x00000000c00c2004       0x2c tasks.o
 .bss           0x00000000c00c2030       0x2c theap.o
 .bss           0x00000000c00c205c       0x2c thread.o
 .bss           0x00000000c00c2088       0x2c threadi.o
 .bss           0x00000000c00c20b4       0x2c ts.o
 .bss           0x00000000c00c20e0       0x2c tstack.o
 .bss           0x00000000c00c210c       0x2c callout.o
 .bss           0x00000000c00c2138        0x0 callfar.o
 .bss           0x00000000c00c2138       0x2c ipc.o
 .bss           0x00000000c00c2164       0x2c ipccore.o
 .bss           0x00000000c00c2190       0x2c sem.o
 .bss           0x00000000c00c21bc       0x2c memory.o
 .bss           0x00000000c00c21e8       0x2c mminfo.o
 .bss           0x00000000c00c2214       0x2c mmpool.o
 .bss           0x00000000c00c2240       0x2c pages.o
 .bss           0x00000000c00c226c       0x2c preempt.o
 .bss           0x00000000c00c2298       0x2c priority.o
 .bss           0x00000000c00c22c4       0x2c sched.o
 .bss           0x00000000c00c22f0       0x2c schedi.o
 .bss           0x00000000c00c231c       0x2c create.o
 .bss           0x00000000c00c2348       0x2c mk.o
 .bss           0x00000000c00c2374       0x2c request.o
 .bss           0x00000000c00c23a0       0x2c panic.o
 .bss           0x00000000c00c23cc       0x2c reboot.o
 .bss           0x00000000c00c23f8       0x2c sys.o
 .bss           0x00000000c00c2424       0x2c sysio.o
 .bss           0x00000000c00c2450       0x2c syslib.o
 .bss           0x00000000c00c247c       0x2c sysmk.o
 .bss           0x00000000c00c24a8       0x2c syssm.o
                0x00000000c00c24d4                _bss_end = .
                0x00000000c00c3000                . = ALIGN (0x1000)
 *fill*         0x00000000c00c24d4      0xb2c 
                0x00000000c00c3000                _kernel_end = .
LOAD boot.o
LOAD main.o
LOAD x86main.o
LOAD socket.o
LOAD ctype.o
LOAD kstdio.o
LOAD stdlib.o
LOAD string.o
LOAD unistd.o
LOAD devmgr.o
LOAD gde_serv.o
LOAD debug.o
LOAD storage.o
LOAD install.o
LOAD object.o
LOAD runtime.o
LOAD abort.o
LOAD info.o
LOAD io.o
LOAD modules.o
LOAD signal.o
LOAD sm.o
LOAD init.o
LOAD system.o
LOAD execve.o
LOAD cpuamd.o
LOAD portsx86.o
LOAD syscall.o
LOAD x86.o
LOAD detect.o
LOAD hal.o
LOAD ahci.o
LOAD ata.o
LOAD atadma.o
LOAD atainit.o
LOAD atairq.o
LOAD atapci.o
LOAD hdd.o
LOAD channel.o
LOAD network.o
LOAD nicintel.o
LOAD pci.o
LOAD pciinfo.o
LOAD pciscan.o
LOAD tty.o
LOAD pty.o
LOAD vt.o
LOAD usb.o
LOAD video.o
LOAD vsync.o
LOAD screen.o
LOAD xproc.o
LOAD i8042.o
LOAD keyboard.o
LOAD mouse.o
LOAD ps2kbd.o
LOAD ps2mouse.o
LOAD ldisc.o
LOAD apic.o
LOAD pic.o
LOAD rtc.o
LOAD serial.o
LOAD pit.o
LOAD cf.o
LOAD format.o
LOAD pipe.o
LOAD fs.o
LOAD read.o
LOAD search.o
LOAD write.o
LOAD cedge.o
LOAD bg.o
LOAD bmp.o
LOAD button.o
LOAD char.o
LOAD createw.o
LOAD dtext.o
LOAD font.o
LOAD grid.o
LOAD line.o
LOAD menu.o
LOAD menubar.o
LOAD pixel.o
LOAD rect.o
LOAD sbar.o
LOAD toolbar.o
LOAD wm.o
LOAD logoff.o
LOAD logon.o
LOAD input.o
LOAD output.o
LOAD terminal.o
LOAD desktop.o
LOAD room.o
LOAD userenv.o
LOAD usession.o
LOAD kgwm.o
LOAD kgws.o
LOAD vfs.o
LOAD x86cont.o
LOAD x86fault.o
LOAD x86start.o
LOAD dispatch.o
LOAD pheap.o
LOAD process.o
LOAD clone.o
LOAD queue.o
LOAD spawn.o
LOAD tasks.o
LOAD theap.o
LOAD thread.o
LOAD threadi.o
LOAD ts.o
LOAD tstack.o
LOAD callout.o
LOAD callfar.o
LOAD ipc.o
LOAD ipccore.o
LOAD sem.o
LOAD memory.o
LOAD mminfo.o
LOAD mmpool.o
LOAD pages.o
LOAD preempt.o
LOAD priority.o
LOAD sched.o
LOAD schedi.o
LOAD create.o
LOAD mk.o
LOAD request.o
LOAD panic.o
LOAD reboot.o
LOAD sys.o
LOAD sysio.o
LOAD syslib.o
LOAD sysmk.o
LOAD syssm.o
OUTPUT(KERNEL.BIN elf32-i386)

.comment        0x0000000000000000       0x11
 .comment       0x0000000000000000       0x11 main.o
                                         0x12 (size before relaxing)
 .comment       0x0000000000000011       0x12 x86main.o
 .comment       0x0000000000000011       0x12 socket.o
 .comment       0x0000000000000011       0x12 ctype.o
 .comment       0x0000000000000011       0x12 kstdio.o
 .comment       0x0000000000000011       0x12 stdlib.o
 .comment       0x0000000000000011       0x12 string.o
 .comment       0x0000000000000011       0x12 unistd.o
 .comment       0x0000000000000011       0x12 devmgr.o
 .comment       0x0000000000000011       0x12 gde_serv.o
 .comment       0x0000000000000011       0x12 debug.o
 .comment       0x0000000000000011       0x12 storage.o
 .comment       0x0000000000000011       0x12 install.o
 .comment       0x0000000000000011       0x12 object.o
 .comment       0x0000000000000011       0x12 runtime.o
 .comment       0x0000000000000011       0x12 abort.o
 .comment       0x0000000000000011       0x12 info.o
 .comment       0x0000000000000011       0x12 io.o
 .comment       0x0000000000000011       0x12 modules.o
 .comment       0x0000000000000011       0x12 signal.o
 .comment       0x0000000000000011       0x12 sm.o
 .comment       0x0000000000000011       0x12 init.o
 .comment       0x0000000000000011       0x12 system.o
 .comment       0x0000000000000011       0x12 execve.o
 .comment       0x0000000000000011       0x12 cpuamd.o
 .comment       0x0000000000000011       0x12 portsx86.o
 .comment       0x0000000000000011       0x12 syscall.o
 .comment       0x0000000000000011       0x12 x86.o
 .comment       0x0000000000000011       0x12 detect.o
 .comment       0x0000000000000011       0x12 hal.o
 .comment       0x0000000000000011       0x12 ahci.o
 .comment       0x0000000000000011       0x12 ata.o
 .comment       0x0000000000000011       0x12 atadma.o
 .comment       0x0000000000000011       0x12 atainit.o
 .comment       0x0000000000000011       0x12 atairq.o
 .comment       0x0000000000000011       0x12 atapci.o
 .comment       0x0000000000000011       0x12 hdd.o
 .comment       0x0000000000000011       0x12 channel.o
 .comment       0x0000000000000011       0x12 network.o
 .comment       0x0000000000000011       0x12 nicintel.o
 .comment       0x0000000000000011       0x12 pci.o
 .comment       0x0000000000000011       0x12 pciinfo.o
 .comment       0x0000000000000011       0x12 pciscan.o
 .comment       0x0000000000000011       0x12 tty.o
 .comment       0x0000000000000011       0x12 pty.o
 .comment       0x0000000000000011       0x12 vt.o
 .comment       0x0000000000000011       0x12 usb.o
 .comment       0x0000000000000011       0x12 video.o
 .comment       0x0000000000000011       0x12 vsync.o
 .comment       0x0000000000000011       0x12 screen.o
 .comment       0x0000000000000011       0x12 xproc.o
 .comment       0x0000000000000011       0x12 i8042.o
 .comment       0x0000000000000011       0x12 keyboard.o
 .comment       0x0000000000000011       0x12 mouse.o
 .comment       0x0000000000000011       0x12 ps2kbd.o
 .comment       0x0000000000000011       0x12 ps2mouse.o
 .comment       0x0000000000000011       0x12 ldisc.o
 .comment       0x0000000000000011       0x12 apic.o
 .comment       0x0000000000000011       0x12 pic.o
 .comment       0x0000000000000011       0x12 rtc.o
 .comment       0x0000000000000011       0x12 serial.o
 .comment       0x0000000000000011       0x12 pit.o
 .comment       0x0000000000000011       0x12 cf.o
 .comment       0x0000000000000011       0x12 format.o
 .comment       0x0000000000000011       0x12 pipe.o
 .comment       0x0000000000000011       0x12 fs.o
 .comment       0x0000000000000011       0x12 read.o
 .comment       0x0000000000000011       0x12 search.o
 .comment       0x0000000000000011       0x12 write.o
 .comment       0x0000000000000011       0x12 cedge.o
 .comment       0x0000000000000011       0x12 bg.o
 .comment       0x0000000000000011       0x12 bmp.o
 .comment       0x0000000000000011       0x12 button.o
 .comment       0x0000000000000011       0x12 char.o
 .comment       0x0000000000000011       0x12 createw.o
 .comment       0x0000000000000011       0x12 dtext.o
 .comment       0x0000000000000011       0x12 font.o
 .comment       0x0000000000000011       0x12 grid.o
 .comment       0x0000000000000011       0x12 line.o
 .comment       0x0000000000000011       0x12 menu.o
 .comment       0x0000000000000011       0x12 menubar.o
 .comment       0x0000000000000011       0x12 pixel.o
 .comment       0x0000000000000011       0x12 rect.o
 .comment       0x0000000000000011       0x12 sbar.o
 .comment       0x0000000000000011       0x12 toolbar.o
 .comment       0x0000000000000011       0x12 wm.o
 .comment       0x0000000000000011       0x12 logoff.o
 .comment       0x0000000000000011       0x12 logon.o
 .comment       0x0000000000000011       0x12 input.o
 .comment       0x0000000000000011       0x12 output.o
 .comment       0x0000000000000011       0x12 terminal.o
 .comment       0x0000000000000011       0x12 desktop.o
 .comment       0x0000000000000011       0x12 room.o
 .comment       0x0000000000000011       0x12 userenv.o
 .comment       0x0000000000000011       0x12 usession.o
 .comment       0x0000000000000011       0x12 kgwm.o
 .comment       0x0000000000000011       0x12 kgws.o
 .comment       0x0000000000000011       0x12 vfs.o
 .comment       0x0000000000000011       0x12 x86cont.o
 .comment       0x0000000000000011       0x12 x86fault.o
 .comment       0x0000000000000011       0x12 x86start.o
 .comment       0x0000000000000011       0x12 dispatch.o
 .comment       0x0000000000000011       0x12 pheap.o
 .comment       0x0000000000000011       0x12 process.o
 .comment       0x0000000000000011       0x12 clone.o
 .comment       0x0000000000000011       0x12 queue.o
 .comment       0x0000000000000011       0x12 spawn.o
 .comment       0x0000000000000011       0x12 tasks.o
 .comment       0x0000000000000011       0x12 theap.o
 .comment       0x0000000000000011       0x12 thread.o
 .comment       0x0000000000000011       0x12 threadi.o
 .comment       0x0000000000000011       0x12 ts.o
 .comment       0x0000000000000011       0x12 tstack.o
 .comment       0x0000000000000011       0x12 callout.o
 .comment       0x0000000000000011       0x12 callfar.o
 .comment       0x0000000000000011       0x12 ipc.o
 .comment       0x0000000000000011       0x12 ipccore.o
 .comment       0x0000000000000011       0x12 sem.o
 .comment       0x0000000000000011       0x12 memory.o
 .comment       0x0000000000000011       0x12 mminfo.o
 .comment       0x0000000000000011       0x12 mmpool.o
 .comment       0x0000000000000011       0x12 pages.o
 .comment       0x0000000000000011       0x12 preempt.o
 .comment       0x0000000000000011       0x12 priority.o
 .comment       0x0000000000000011       0x12 sched.o
 .comment       0x0000000000000011       0x12 schedi.o
 .comment       0x0000000000000011       0x12 create.o
 .comment       0x0000000000000011       0x12 mk.o
 .comment       0x0000000000000011       0x12 request.o
 .comment       0x0000000000000011       0x12 panic.o
 .comment       0x0000000000000011       0x12 reboot.o
 .comment       0x0000000000000011       0x12 sys.o
 .comment       0x0000000000000011       0x12 sysio.o
 .comment       0x0000000000000011       0x12 syslib.o
 .comment       0x0000000000000011       0x12 sysmk.o
 .comment       0x0000000000000011       0x12 syssm.o

.note.GNU-stack
                0x0000000000000000        0x0
 .note.GNU-stack
                0x0000000000000000        0x0 main.o
 .note.GNU-stack
                0x0000000000000000        0x0 x86main.o
 .note.GNU-stack
                0x0000000000000000        0x0 socket.o
 .note.GNU-stack
                0x0000000000000000        0x0 ctype.o
 .note.GNU-stack
                0x0000000000000000        0x0 kstdio.o
 .note.GNU-stack
                0x0000000000000000        0x0 stdlib.o
 .note.GNU-stack
                0x0000000000000000        0x0 string.o
 .note.GNU-stack
                0x0000000000000000        0x0 unistd.o
 .note.GNU-stack
                0x0000000000000000        0x0 devmgr.o
 .note.GNU-stack
                0x0000000000000000        0x0 gde_serv.o
 .note.GNU-stack
                0x0000000000000000        0x0 debug.o
 .note.GNU-stack
                0x0000000000000000        0x0 storage.o
 .note.GNU-stack
                0x0000000000000000        0x0 install.o
 .note.GNU-stack
                0x0000000000000000        0x0 object.o
 .note.GNU-stack
                0x0000000000000000        0x0 runtime.o
 .note.GNU-stack
                0x0000000000000000        0x0 abort.o
 .note.GNU-stack
                0x0000000000000000        0x0 info.o
 .note.GNU-stack
                0x0000000000000000        0x0 io.o
 .note.GNU-stack
                0x0000000000000000        0x0 modules.o
 .note.GNU-stack
                0x0000000000000000        0x0 signal.o
 .note.GNU-stack
                0x0000000000000000        0x0 sm.o
 .note.GNU-stack
                0x0000000000000000        0x0 init.o
 .note.GNU-stack
                0x0000000000000000        0x0 system.o
 .note.GNU-stack
                0x0000000000000000        0x0 execve.o
 .note.GNU-stack
                0x0000000000000000        0x0 cpuamd.o
 .note.GNU-stack
                0x0000000000000000        0x0 portsx86.o
 .note.GNU-stack
                0x0000000000000000        0x0 syscall.o
 .note.GNU-stack
                0x0000000000000000        0x0 x86.o
 .note.GNU-stack
                0x0000000000000000        0x0 detect.o
 .note.GNU-stack
                0x0000000000000000        0x0 hal.o
 .note.GNU-stack
                0x0000000000000000        0x0 ahci.o
 .note.GNU-stack
                0x0000000000000000        0x0 ata.o
 .note.GNU-stack
                0x0000000000000000        0x0 atadma.o
 .note.GNU-stack
                0x0000000000000000        0x0 atainit.o
 .note.GNU-stack
                0x0000000000000000        0x0 atairq.o
 .note.GNU-stack
                0x0000000000000000        0x0 atapci.o
 .note.GNU-stack
                0x0000000000000000        0x0 hdd.o
 .note.GNU-stack
                0x0000000000000000        0x0 channel.o
 .note.GNU-stack
                0x0000000000000000        0x0 network.o
 .note.GNU-stack
                0x0000000000000000        0x0 nicintel.o
 .note.GNU-stack
                0x0000000000000000        0x0 pci.o
 .note.GNU-stack
                0x0000000000000000        0x0 pciinfo.o
 .note.GNU-stack
                0x0000000000000000        0x0 pciscan.o
 .note.GNU-stack
                0x0000000000000000        0x0 tty.o
 .note.GNU-stack
                0x0000000000000000        0x0 pty.o
 .note.GNU-stack
                0x0000000000000000        0x0 vt.o
 .note.GNU-stack
                0x0000000000000000        0x0 usb.o
 .note.GNU-stack
                0x0000000000000000        0x0 video.o
 .note.GNU-stack
                0x0000000000000000        0x0 vsync.o
 .note.GNU-stack
                0x0000000000000000        0x0 screen.o
 .note.GNU-stack
                0x0000000000000000        0x0 xproc.o
 .note.GNU-stack
                0x0000000000000000        0x0 i8042.o
 .note.GNU-stack
                0x0000000000000000        0x0 keyboard.o
 .note.GNU-stack
                0x0000000000000000        0x0 mouse.o
 .note.GNU-stack
                0x0000000000000000        0x0 ps2kbd.o
 .note.GNU-stack
                0x0000000000000000        0x0 ps2mouse.o
 .note.GNU-stack
                0x0000000000000000        0x0 ldisc.o
 .note.GNU-stack
                0x0000000000000000        0x0 apic.o
 .note.GNU-stack
                0x0000000000000000        0x0 pic.o
 .note.GNU-stack
                0x0000000000000000        0x0 rtc.o
 .note.GNU-stack
                0x0000000000000000        0x0 serial.o
 .note.GNU-stack
                0x0000000000000000        0x0 pit.o
 .note.GNU-stack
                0x0000000000000000        0x0 cf.o
 .note.GNU-stack
                0x0000000000000000        0x0 format.o
 .note.GNU-stack
                0x0000000000000000        0x0 pipe.o
 .note.GNU-stack
                0x0000000000000000        0x0 fs.o
 .note.GNU-stack
                0x0000000000000000        0x0 read.o
 .note.GNU-stack
                0x0000000000000000        0x0 search.o
 .note.GNU-stack
                0x0000000000000000        0x0 write.o
 .note.GNU-stack
                0x0000000000000000        0x0 cedge.o
 .note.GNU-stack
                0x0000000000000000        0x0 bg.o
 .note.GNU-stack
                0x0000000000000000        0x0 bmp.o
 .note.GNU-stack
                0x0000000000000000        0x0 button.o
 .note.GNU-stack
                0x0000000000000000        0x0 char.o
 .note.GNU-stack
                0x0000000000000000        0x0 createw.o
 .note.GNU-stack
                0x0000000000000000        0x0 dtext.o
 .note.GNU-stack
                0x0000000000000000        0x0 font.o
 .note.GNU-stack
                0x0000000000000000        0x0 grid.o
 .note.GNU-stack
                0x0000000000000000        0x0 line.o
 .note.GNU-stack
                0x0000000000000000        0x0 menu.o
 .note.GNU-stack
                0x0000000000000000        0x0 menubar.o
 .note.GNU-stack
                0x0000000000000000        0x0 pixel.o
 .note.GNU-stack
                0x0000000000000000        0x0 rect.o
 .note.GNU-stack
                0x0000000000000000        0x0 sbar.o
 .note.GNU-stack
                0x0000000000000000        0x0 toolbar.o
 .note.GNU-stack
                0x0000000000000000        0x0 wm.o
 .note.GNU-stack
                0x0000000000000000        0x0 logoff.o
 .note.GNU-stack
                0x0000000000000000        0x0 logon.o
 .note.GNU-stack
                0x0000000000000000        0x0 input.o
 .note.GNU-stack
                0x0000000000000000        0x0 output.o
 .note.GNU-stack
                0x0000000000000000        0x0 terminal.o
 .note.GNU-stack
                0x0000000000000000        0x0 desktop.o
 .note.GNU-stack
                0x0000000000000000        0x0 room.o
 .note.GNU-stack
                0x0000000000000000        0x0 userenv.o
 .note.GNU-stack
                0x0000000000000000        0x0 usession.o
 .note.GNU-stack
                0x0000000000000000        0x0 kgwm.o
 .note.GNU-stack
                0x0000000000000000        0x0 kgws.o
 .note.GNU-stack
                0x0000000000000000        0x0 vfs.o
 .note.GNU-stack
                0x0000000000000000        0x0 x86cont.o
 .note.GNU-stack
                0x0000000000000000        0x0 x86fault.o
 .note.GNU-stack
                0x0000000000000000        0x0 x86start.o
 .note.GNU-stack
                0x0000000000000000        0x0 dispatch.o
 .note.GNU-stack
                0x0000000000000000        0x0 pheap.o
 .note.GNU-stack
                0x0000000000000000        0x0 process.o
 .note.GNU-stack
                0x0000000000000000        0x0 clone.o
 .note.GNU-stack
                0x0000000000000000        0x0 queue.o
 .note.GNU-stack
                0x0000000000000000        0x0 spawn.o
 .note.GNU-stack
                0x0000000000000000        0x0 tasks.o
 .note.GNU-stack
                0x0000000000000000        0x0 theap.o
 .note.GNU-stack
                0x0000000000000000        0x0 thread.o
 .note.GNU-stack
                0x0000000000000000        0x0 threadi.o
 .note.GNU-stack
                0x0000000000000000        0x0 ts.o
 .note.GNU-stack
                0x0000000000000000        0x0 tstack.o
 .note.GNU-stack
                0x0000000000000000        0x0 callout.o
 .note.GNU-stack
                0x0000000000000000        0x0 callfar.o
 .note.GNU-stack
                0x0000000000000000        0x0 ipc.o
 .note.GNU-stack
                0x0000000000000000        0x0 ipccore.o
 .note.GNU-stack
                0x0000000000000000        0x0 sem.o
 .note.GNU-stack
                0x0000000000000000        0x0 memory.o
 .note.GNU-stack
                0x0000000000000000        0x0 mminfo.o
 .note.GNU-stack
                0x0000000000000000        0x0 mmpool.o
 .note.GNU-stack
                0x0000000000000000        0x0 pages.o
 .note.GNU-stack
                0x0000000000000000        0x0 preempt.o
 .note.GNU-stack
                0x0000000000000000        0x0 priority.o
 .note.GNU-stack
                0x0000000000000000        0x0 sched.o
 .note.GNU-stack
                0x0000000000000000        0x0 schedi.o
 .note.GNU-stack
                0x0000000000000000        0x0 create.o
 .note.GNU-stack
                0x0000000000000000        0x0 mk.o
 .note.GNU-stack
                0x0000000000000000        0x0 request.o
 .note.GNU-stack
                0x0000000000000000        0x0 panic.o
 .note.GNU-stack
                0x0000000000000000        0x0 reboot.o
 .note.GNU-stack
                0x0000000000000000        0x0 sys.o
 .note.GNU-stack
                0x0000000000000000        0x0 sysio.o
 .note.GNU-stack
                0x0000000000000000        0x0 syslib.o
 .note.GNU-stack
                0x0000000000000000        0x0 sysmk.o
 .note.GNU-stack
                0x0000000000000000        0x0 syssm.o
